
Horno.elf:     file format elf32-littlearm

Sections:
Idx Name          Size      VMA       LMA       File off  Algn
  0 .isr_vector   000000c0  08000000  08000000  00001000  2**0
                  CONTENTS, ALLOC, LOAD, READONLY, DATA
  1 .text         00003748  080000c0  080000c0  000010c0  2**2
                  CONTENTS, ALLOC, LOAD, READONLY, CODE
  2 .rodata       000001c8  08003808  08003808  00004808  2**2
                  CONTENTS, ALLOC, LOAD, READONLY, DATA
  3 .ARM.extab    00000000  080039d0  080039d0  0000505c  2**0
                  CONTENTS
  4 .ARM          00000000  080039d0  080039d0  0000505c  2**0
                  CONTENTS
  5 .preinit_array 00000000  080039d0  080039d0  0000505c  2**0
                  CONTENTS, ALLOC, LOAD, DATA
  6 .init_array   00000004  080039d0  080039d0  000049d0  2**2
                  CONTENTS, ALLOC, LOAD, READONLY, DATA
  7 .fini_array   00000004  080039d4  080039d4  000049d4  2**2
                  CONTENTS, ALLOC, LOAD, READONLY, DATA
  8 .data         0000005c  20000000  080039d8  00005000  2**2
                  CONTENTS, ALLOC, LOAD, DATA
  9 .bss          000001e8  2000005c  08003a34  0000505c  2**2
                  ALLOC
 10 ._user_heap_stack 00000604  20000244  08003a34  00005244  2**0
                  ALLOC
 11 .ARM.attributes 00000028  00000000  00000000  0000505c  2**0
                  CONTENTS, READONLY
 12 .debug_info   00001154  00000000  00000000  00005084  2**0
                  CONTENTS, READONLY, DEBUGGING, OCTETS
 13 .debug_abbrev 00000463  00000000  00000000  000061d8  2**0
                  CONTENTS, READONLY, DEBUGGING, OCTETS
 14 .debug_aranges 00000140  00000000  00000000  00006640  2**3
                  CONTENTS, READONLY, DEBUGGING, OCTETS
 15 .debug_rnglists 000000ec  00000000  00000000  00006780  2**0
                  CONTENTS, READONLY, DEBUGGING, OCTETS
 16 .debug_macro  00005482  00000000  00000000  0000686c  2**0
                  CONTENTS, READONLY, DEBUGGING, OCTETS
 17 .debug_line   0000140a  00000000  00000000  0000bcee  2**0
                  CONTENTS, READONLY, DEBUGGING, OCTETS
 18 .debug_str    0001ab3b  00000000  00000000  0000d0f8  2**0
                  CONTENTS, READONLY, DEBUGGING, OCTETS
 19 .comment      00000043  00000000  00000000  00027c33  2**0
                  CONTENTS, READONLY
 20 .debug_frame  00000d70  00000000  00000000  00027c78  2**2
                  CONTENTS, READONLY, DEBUGGING, OCTETS
 21 .debug_line_str 0000005c  00000000  00000000  000289e8  2**0
                  CONTENTS, READONLY, DEBUGGING, OCTETS

Disassembly of section .text:

080000c0 <__do_global_dtors_aux>:
 80000c0:	b510      	push	{r4, lr}
 80000c2:	4c06      	ldr	r4, [pc, #24]	@ (80000dc <__do_global_dtors_aux+0x1c>)
 80000c4:	7823      	ldrb	r3, [r4, #0]
 80000c6:	2b00      	cmp	r3, #0
 80000c8:	d107      	bne.n	80000da <__do_global_dtors_aux+0x1a>
 80000ca:	4b05      	ldr	r3, [pc, #20]	@ (80000e0 <__do_global_dtors_aux+0x20>)
 80000cc:	2b00      	cmp	r3, #0
 80000ce:	d002      	beq.n	80000d6 <__do_global_dtors_aux+0x16>
 80000d0:	4804      	ldr	r0, [pc, #16]	@ (80000e4 <__do_global_dtors_aux+0x24>)
 80000d2:	e000      	b.n	80000d6 <__do_global_dtors_aux+0x16>
 80000d4:	bf00      	nop
 80000d6:	2301      	movs	r3, #1
 80000d8:	7023      	strb	r3, [r4, #0]
 80000da:	bd10      	pop	{r4, pc}
 80000dc:	2000005c 	.word	0x2000005c
 80000e0:	00000000 	.word	0x00000000
 80000e4:	080037f0 	.word	0x080037f0

080000e8 <frame_dummy>:
 80000e8:	4b04      	ldr	r3, [pc, #16]	@ (80000fc <frame_dummy+0x14>)
 80000ea:	b510      	push	{r4, lr}
 80000ec:	2b00      	cmp	r3, #0
 80000ee:	d003      	beq.n	80000f8 <frame_dummy+0x10>
 80000f0:	4903      	ldr	r1, [pc, #12]	@ (8000100 <frame_dummy+0x18>)
 80000f2:	4804      	ldr	r0, [pc, #16]	@ (8000104 <frame_dummy+0x1c>)
 80000f4:	e000      	b.n	80000f8 <frame_dummy+0x10>
 80000f6:	bf00      	nop
 80000f8:	bd10      	pop	{r4, pc}
 80000fa:	46c0      	nop			@ (mov r8, r8)
 80000fc:	00000000 	.word	0x00000000
 8000100:	20000060 	.word	0x20000060
 8000104:	080037f0 	.word	0x080037f0

08000108 <strlen>:
 8000108:	2300      	movs	r3, #0
 800010a:	5cc2      	ldrb	r2, [r0, r3]
 800010c:	3301      	adds	r3, #1
 800010e:	2a00      	cmp	r2, #0
 8000110:	d1fb      	bne.n	800010a <strlen+0x2>
 8000112:	1e58      	subs	r0, r3, #1
 8000114:	4770      	bx	lr
	...

08000118 <__gnu_thumb1_case_shi>:
 8000118:	b403      	push	{r0, r1}
 800011a:	4671      	mov	r1, lr
 800011c:	0849      	lsrs	r1, r1, #1
 800011e:	0040      	lsls	r0, r0, #1
 8000120:	0049      	lsls	r1, r1, #1
 8000122:	5e09      	ldrsh	r1, [r1, r0]
 8000124:	0049      	lsls	r1, r1, #1
 8000126:	448e      	add	lr, r1
 8000128:	bc03      	pop	{r0, r1}
 800012a:	4770      	bx	lr

0800012c <__udivsi3>:
 800012c:	2200      	movs	r2, #0
 800012e:	0843      	lsrs	r3, r0, #1
 8000130:	428b      	cmp	r3, r1
 8000132:	d374      	bcc.n	800021e <__udivsi3+0xf2>
 8000134:	0903      	lsrs	r3, r0, #4
 8000136:	428b      	cmp	r3, r1
 8000138:	d35f      	bcc.n	80001fa <__udivsi3+0xce>
 800013a:	0a03      	lsrs	r3, r0, #8
 800013c:	428b      	cmp	r3, r1
 800013e:	d344      	bcc.n	80001ca <__udivsi3+0x9e>
 8000140:	0b03      	lsrs	r3, r0, #12
 8000142:	428b      	cmp	r3, r1
 8000144:	d328      	bcc.n	8000198 <__udivsi3+0x6c>
 8000146:	0c03      	lsrs	r3, r0, #16
 8000148:	428b      	cmp	r3, r1
 800014a:	d30d      	bcc.n	8000168 <__udivsi3+0x3c>
 800014c:	22ff      	movs	r2, #255	@ 0xff
 800014e:	0209      	lsls	r1, r1, #8
 8000150:	ba12      	rev	r2, r2
 8000152:	0c03      	lsrs	r3, r0, #16
 8000154:	428b      	cmp	r3, r1
 8000156:	d302      	bcc.n	800015e <__udivsi3+0x32>
 8000158:	1212      	asrs	r2, r2, #8
 800015a:	0209      	lsls	r1, r1, #8
 800015c:	d065      	beq.n	800022a <__udivsi3+0xfe>
 800015e:	0b03      	lsrs	r3, r0, #12
 8000160:	428b      	cmp	r3, r1
 8000162:	d319      	bcc.n	8000198 <__udivsi3+0x6c>
 8000164:	e000      	b.n	8000168 <__udivsi3+0x3c>
 8000166:	0a09      	lsrs	r1, r1, #8
 8000168:	0bc3      	lsrs	r3, r0, #15
 800016a:	428b      	cmp	r3, r1
 800016c:	d301      	bcc.n	8000172 <__udivsi3+0x46>
 800016e:	03cb      	lsls	r3, r1, #15
 8000170:	1ac0      	subs	r0, r0, r3
 8000172:	4152      	adcs	r2, r2
 8000174:	0b83      	lsrs	r3, r0, #14
 8000176:	428b      	cmp	r3, r1
 8000178:	d301      	bcc.n	800017e <__udivsi3+0x52>
 800017a:	038b      	lsls	r3, r1, #14
 800017c:	1ac0      	subs	r0, r0, r3
 800017e:	4152      	adcs	r2, r2
 8000180:	0b43      	lsrs	r3, r0, #13
 8000182:	428b      	cmp	r3, r1
 8000184:	d301      	bcc.n	800018a <__udivsi3+0x5e>
 8000186:	034b      	lsls	r3, r1, #13
 8000188:	1ac0      	subs	r0, r0, r3
 800018a:	4152      	adcs	r2, r2
 800018c:	0b03      	lsrs	r3, r0, #12
 800018e:	428b      	cmp	r3, r1
 8000190:	d301      	bcc.n	8000196 <__udivsi3+0x6a>
 8000192:	030b      	lsls	r3, r1, #12
 8000194:	1ac0      	subs	r0, r0, r3
 8000196:	4152      	adcs	r2, r2
 8000198:	0ac3      	lsrs	r3, r0, #11
 800019a:	428b      	cmp	r3, r1
 800019c:	d301      	bcc.n	80001a2 <__udivsi3+0x76>
 800019e:	02cb      	lsls	r3, r1, #11
 80001a0:	1ac0      	subs	r0, r0, r3
 80001a2:	4152      	adcs	r2, r2
 80001a4:	0a83      	lsrs	r3, r0, #10
 80001a6:	428b      	cmp	r3, r1
 80001a8:	d301      	bcc.n	80001ae <__udivsi3+0x82>
 80001aa:	028b      	lsls	r3, r1, #10
 80001ac:	1ac0      	subs	r0, r0, r3
 80001ae:	4152      	adcs	r2, r2
 80001b0:	0a43      	lsrs	r3, r0, #9
 80001b2:	428b      	cmp	r3, r1
 80001b4:	d301      	bcc.n	80001ba <__udivsi3+0x8e>
 80001b6:	024b      	lsls	r3, r1, #9
 80001b8:	1ac0      	subs	r0, r0, r3
 80001ba:	4152      	adcs	r2, r2
 80001bc:	0a03      	lsrs	r3, r0, #8
 80001be:	428b      	cmp	r3, r1
 80001c0:	d301      	bcc.n	80001c6 <__udivsi3+0x9a>
 80001c2:	020b      	lsls	r3, r1, #8
 80001c4:	1ac0      	subs	r0, r0, r3
 80001c6:	4152      	adcs	r2, r2
 80001c8:	d2cd      	bcs.n	8000166 <__udivsi3+0x3a>
 80001ca:	09c3      	lsrs	r3, r0, #7
 80001cc:	428b      	cmp	r3, r1
 80001ce:	d301      	bcc.n	80001d4 <__udivsi3+0xa8>
 80001d0:	01cb      	lsls	r3, r1, #7
 80001d2:	1ac0      	subs	r0, r0, r3
 80001d4:	4152      	adcs	r2, r2
 80001d6:	0983      	lsrs	r3, r0, #6
 80001d8:	428b      	cmp	r3, r1
 80001da:	d301      	bcc.n	80001e0 <__udivsi3+0xb4>
 80001dc:	018b      	lsls	r3, r1, #6
 80001de:	1ac0      	subs	r0, r0, r3
 80001e0:	4152      	adcs	r2, r2
 80001e2:	0943      	lsrs	r3, r0, #5
 80001e4:	428b      	cmp	r3, r1
 80001e6:	d301      	bcc.n	80001ec <__udivsi3+0xc0>
 80001e8:	014b      	lsls	r3, r1, #5
 80001ea:	1ac0      	subs	r0, r0, r3
 80001ec:	4152      	adcs	r2, r2
 80001ee:	0903      	lsrs	r3, r0, #4
 80001f0:	428b      	cmp	r3, r1
 80001f2:	d301      	bcc.n	80001f8 <__udivsi3+0xcc>
 80001f4:	010b      	lsls	r3, r1, #4
 80001f6:	1ac0      	subs	r0, r0, r3
 80001f8:	4152      	adcs	r2, r2
 80001fa:	08c3      	lsrs	r3, r0, #3
 80001fc:	428b      	cmp	r3, r1
 80001fe:	d301      	bcc.n	8000204 <__udivsi3+0xd8>
 8000200:	00cb      	lsls	r3, r1, #3
 8000202:	1ac0      	subs	r0, r0, r3
 8000204:	4152      	adcs	r2, r2
 8000206:	0883      	lsrs	r3, r0, #2
 8000208:	428b      	cmp	r3, r1
 800020a:	d301      	bcc.n	8000210 <__udivsi3+0xe4>
 800020c:	008b      	lsls	r3, r1, #2
 800020e:	1ac0      	subs	r0, r0, r3
 8000210:	4152      	adcs	r2, r2
 8000212:	0843      	lsrs	r3, r0, #1
 8000214:	428b      	cmp	r3, r1
 8000216:	d301      	bcc.n	800021c <__udivsi3+0xf0>
 8000218:	004b      	lsls	r3, r1, #1
 800021a:	1ac0      	subs	r0, r0, r3
 800021c:	4152      	adcs	r2, r2
 800021e:	1a41      	subs	r1, r0, r1
 8000220:	d200      	bcs.n	8000224 <__udivsi3+0xf8>
 8000222:	4601      	mov	r1, r0
 8000224:	4152      	adcs	r2, r2
 8000226:	4610      	mov	r0, r2
 8000228:	4770      	bx	lr
 800022a:	e7ff      	b.n	800022c <__udivsi3+0x100>
 800022c:	b501      	push	{r0, lr}
 800022e:	2000      	movs	r0, #0
 8000230:	f000 f8f0 	bl	8000414 <__aeabi_idiv0>
 8000234:	bd02      	pop	{r1, pc}
 8000236:	46c0      	nop			@ (mov r8, r8)

08000238 <__aeabi_uidivmod>:
 8000238:	2900      	cmp	r1, #0
 800023a:	d0f7      	beq.n	800022c <__udivsi3+0x100>
 800023c:	e776      	b.n	800012c <__udivsi3>
 800023e:	4770      	bx	lr

08000240 <__divsi3>:
 8000240:	4603      	mov	r3, r0
 8000242:	430b      	orrs	r3, r1
 8000244:	d47f      	bmi.n	8000346 <__divsi3+0x106>
 8000246:	2200      	movs	r2, #0
 8000248:	0843      	lsrs	r3, r0, #1
 800024a:	428b      	cmp	r3, r1
 800024c:	d374      	bcc.n	8000338 <__divsi3+0xf8>
 800024e:	0903      	lsrs	r3, r0, #4
 8000250:	428b      	cmp	r3, r1
 8000252:	d35f      	bcc.n	8000314 <__divsi3+0xd4>
 8000254:	0a03      	lsrs	r3, r0, #8
 8000256:	428b      	cmp	r3, r1
 8000258:	d344      	bcc.n	80002e4 <__divsi3+0xa4>
 800025a:	0b03      	lsrs	r3, r0, #12
 800025c:	428b      	cmp	r3, r1
 800025e:	d328      	bcc.n	80002b2 <__divsi3+0x72>
 8000260:	0c03      	lsrs	r3, r0, #16
 8000262:	428b      	cmp	r3, r1
 8000264:	d30d      	bcc.n	8000282 <__divsi3+0x42>
 8000266:	22ff      	movs	r2, #255	@ 0xff
 8000268:	0209      	lsls	r1, r1, #8
 800026a:	ba12      	rev	r2, r2
 800026c:	0c03      	lsrs	r3, r0, #16
 800026e:	428b      	cmp	r3, r1
 8000270:	d302      	bcc.n	8000278 <__divsi3+0x38>
 8000272:	1212      	asrs	r2, r2, #8
 8000274:	0209      	lsls	r1, r1, #8
 8000276:	d065      	beq.n	8000344 <__divsi3+0x104>
 8000278:	0b03      	lsrs	r3, r0, #12
 800027a:	428b      	cmp	r3, r1
 800027c:	d319      	bcc.n	80002b2 <__divsi3+0x72>
 800027e:	e000      	b.n	8000282 <__divsi3+0x42>
 8000280:	0a09      	lsrs	r1, r1, #8
 8000282:	0bc3      	lsrs	r3, r0, #15
 8000284:	428b      	cmp	r3, r1
 8000286:	d301      	bcc.n	800028c <__divsi3+0x4c>
 8000288:	03cb      	lsls	r3, r1, #15
 800028a:	1ac0      	subs	r0, r0, r3
 800028c:	4152      	adcs	r2, r2
 800028e:	0b83      	lsrs	r3, r0, #14
 8000290:	428b      	cmp	r3, r1
 8000292:	d301      	bcc.n	8000298 <__divsi3+0x58>
 8000294:	038b      	lsls	r3, r1, #14
 8000296:	1ac0      	subs	r0, r0, r3
 8000298:	4152      	adcs	r2, r2
 800029a:	0b43      	lsrs	r3, r0, #13
 800029c:	428b      	cmp	r3, r1
 800029e:	d301      	bcc.n	80002a4 <__divsi3+0x64>
 80002a0:	034b      	lsls	r3, r1, #13
 80002a2:	1ac0      	subs	r0, r0, r3
 80002a4:	4152      	adcs	r2, r2
 80002a6:	0b03      	lsrs	r3, r0, #12
 80002a8:	428b      	cmp	r3, r1
 80002aa:	d301      	bcc.n	80002b0 <__divsi3+0x70>
 80002ac:	030b      	lsls	r3, r1, #12
 80002ae:	1ac0      	subs	r0, r0, r3
 80002b0:	4152      	adcs	r2, r2
 80002b2:	0ac3      	lsrs	r3, r0, #11
 80002b4:	428b      	cmp	r3, r1
 80002b6:	d301      	bcc.n	80002bc <__divsi3+0x7c>
 80002b8:	02cb      	lsls	r3, r1, #11
 80002ba:	1ac0      	subs	r0, r0, r3
 80002bc:	4152      	adcs	r2, r2
 80002be:	0a83      	lsrs	r3, r0, #10
 80002c0:	428b      	cmp	r3, r1
 80002c2:	d301      	bcc.n	80002c8 <__divsi3+0x88>
 80002c4:	028b      	lsls	r3, r1, #10
 80002c6:	1ac0      	subs	r0, r0, r3
 80002c8:	4152      	adcs	r2, r2
 80002ca:	0a43      	lsrs	r3, r0, #9
 80002cc:	428b      	cmp	r3, r1
 80002ce:	d301      	bcc.n	80002d4 <__divsi3+0x94>
 80002d0:	024b      	lsls	r3, r1, #9
 80002d2:	1ac0      	subs	r0, r0, r3
 80002d4:	4152      	adcs	r2, r2
 80002d6:	0a03      	lsrs	r3, r0, #8
 80002d8:	428b      	cmp	r3, r1
 80002da:	d301      	bcc.n	80002e0 <__divsi3+0xa0>
 80002dc:	020b      	lsls	r3, r1, #8
 80002de:	1ac0      	subs	r0, r0, r3
 80002e0:	4152      	adcs	r2, r2
 80002e2:	d2cd      	bcs.n	8000280 <__divsi3+0x40>
 80002e4:	09c3      	lsrs	r3, r0, #7
 80002e6:	428b      	cmp	r3, r1
 80002e8:	d301      	bcc.n	80002ee <__divsi3+0xae>
 80002ea:	01cb      	lsls	r3, r1, #7
 80002ec:	1ac0      	subs	r0, r0, r3
 80002ee:	4152      	adcs	r2, r2
 80002f0:	0983      	lsrs	r3, r0, #6
 80002f2:	428b      	cmp	r3, r1
 80002f4:	d301      	bcc.n	80002fa <__divsi3+0xba>
 80002f6:	018b      	lsls	r3, r1, #6
 80002f8:	1ac0      	subs	r0, r0, r3
 80002fa:	4152      	adcs	r2, r2
 80002fc:	0943      	lsrs	r3, r0, #5
 80002fe:	428b      	cmp	r3, r1
 8000300:	d301      	bcc.n	8000306 <__divsi3+0xc6>
 8000302:	014b      	lsls	r3, r1, #5
 8000304:	1ac0      	subs	r0, r0, r3
 8000306:	4152      	adcs	r2, r2
 8000308:	0903      	lsrs	r3, r0, #4
 800030a:	428b      	cmp	r3, r1
 800030c:	d301      	bcc.n	8000312 <__divsi3+0xd2>
 800030e:	010b      	lsls	r3, r1, #4
 8000310:	1ac0      	subs	r0, r0, r3
 8000312:	4152      	adcs	r2, r2
 8000314:	08c3      	lsrs	r3, r0, #3
 8000316:	428b      	cmp	r3, r1
 8000318:	d301      	bcc.n	800031e <__divsi3+0xde>
 800031a:	00cb      	lsls	r3, r1, #3
 800031c:	1ac0      	subs	r0, r0, r3
 800031e:	4152      	adcs	r2, r2
 8000320:	0883      	lsrs	r3, r0, #2
 8000322:	428b      	cmp	r3, r1
 8000324:	d301      	bcc.n	800032a <__divsi3+0xea>
 8000326:	008b      	lsls	r3, r1, #2
 8000328:	1ac0      	subs	r0, r0, r3
 800032a:	4152      	adcs	r2, r2
 800032c:	0843      	lsrs	r3, r0, #1
 800032e:	428b      	cmp	r3, r1
 8000330:	d301      	bcc.n	8000336 <__divsi3+0xf6>
 8000332:	004b      	lsls	r3, r1, #1
 8000334:	1ac0      	subs	r0, r0, r3
 8000336:	4152      	adcs	r2, r2
 8000338:	1a41      	subs	r1, r0, r1
 800033a:	d200      	bcs.n	800033e <__divsi3+0xfe>
 800033c:	4601      	mov	r1, r0
 800033e:	4152      	adcs	r2, r2
 8000340:	4610      	mov	r0, r2
 8000342:	4770      	bx	lr
 8000344:	e05d      	b.n	8000402 <__divsi3+0x1c2>
 8000346:	0fca      	lsrs	r2, r1, #31
 8000348:	d000      	beq.n	800034c <__divsi3+0x10c>
 800034a:	4249      	negs	r1, r1
 800034c:	1003      	asrs	r3, r0, #32
 800034e:	d300      	bcc.n	8000352 <__divsi3+0x112>
 8000350:	4240      	negs	r0, r0
 8000352:	4053      	eors	r3, r2
 8000354:	2200      	movs	r2, #0
 8000356:	469c      	mov	ip, r3
 8000358:	0903      	lsrs	r3, r0, #4
 800035a:	428b      	cmp	r3, r1
 800035c:	d32d      	bcc.n	80003ba <__divsi3+0x17a>
 800035e:	0a03      	lsrs	r3, r0, #8
 8000360:	428b      	cmp	r3, r1
 8000362:	d312      	bcc.n	800038a <__divsi3+0x14a>
 8000364:	22fc      	movs	r2, #252	@ 0xfc
 8000366:	0189      	lsls	r1, r1, #6
 8000368:	ba12      	rev	r2, r2
 800036a:	0a03      	lsrs	r3, r0, #8
 800036c:	428b      	cmp	r3, r1
 800036e:	d30c      	bcc.n	800038a <__divsi3+0x14a>
 8000370:	0189      	lsls	r1, r1, #6
 8000372:	1192      	asrs	r2, r2, #6
 8000374:	428b      	cmp	r3, r1
 8000376:	d308      	bcc.n	800038a <__divsi3+0x14a>
 8000378:	0189      	lsls	r1, r1, #6
 800037a:	1192      	asrs	r2, r2, #6
 800037c:	428b      	cmp	r3, r1
 800037e:	d304      	bcc.n	800038a <__divsi3+0x14a>
 8000380:	0189      	lsls	r1, r1, #6
 8000382:	d03a      	beq.n	80003fa <__divsi3+0x1ba>
 8000384:	1192      	asrs	r2, r2, #6
 8000386:	e000      	b.n	800038a <__divsi3+0x14a>
 8000388:	0989      	lsrs	r1, r1, #6
 800038a:	09c3      	lsrs	r3, r0, #7
 800038c:	428b      	cmp	r3, r1
 800038e:	d301      	bcc.n	8000394 <__divsi3+0x154>
 8000390:	01cb      	lsls	r3, r1, #7
 8000392:	1ac0      	subs	r0, r0, r3
 8000394:	4152      	adcs	r2, r2
 8000396:	0983      	lsrs	r3, r0, #6
 8000398:	428b      	cmp	r3, r1
 800039a:	d301      	bcc.n	80003a0 <__divsi3+0x160>
 800039c:	018b      	lsls	r3, r1, #6
 800039e:	1ac0      	subs	r0, r0, r3
 80003a0:	4152      	adcs	r2, r2
 80003a2:	0943      	lsrs	r3, r0, #5
 80003a4:	428b      	cmp	r3, r1
 80003a6:	d301      	bcc.n	80003ac <__divsi3+0x16c>
 80003a8:	014b      	lsls	r3, r1, #5
 80003aa:	1ac0      	subs	r0, r0, r3
 80003ac:	4152      	adcs	r2, r2
 80003ae:	0903      	lsrs	r3, r0, #4
 80003b0:	428b      	cmp	r3, r1
 80003b2:	d301      	bcc.n	80003b8 <__divsi3+0x178>
 80003b4:	010b      	lsls	r3, r1, #4
 80003b6:	1ac0      	subs	r0, r0, r3
 80003b8:	4152      	adcs	r2, r2
 80003ba:	08c3      	lsrs	r3, r0, #3
 80003bc:	428b      	cmp	r3, r1
 80003be:	d301      	bcc.n	80003c4 <__divsi3+0x184>
 80003c0:	00cb      	lsls	r3, r1, #3
 80003c2:	1ac0      	subs	r0, r0, r3
 80003c4:	4152      	adcs	r2, r2
 80003c6:	0883      	lsrs	r3, r0, #2
 80003c8:	428b      	cmp	r3, r1
 80003ca:	d301      	bcc.n	80003d0 <__divsi3+0x190>
 80003cc:	008b      	lsls	r3, r1, #2
 80003ce:	1ac0      	subs	r0, r0, r3
 80003d0:	4152      	adcs	r2, r2
 80003d2:	d2d9      	bcs.n	8000388 <__divsi3+0x148>
 80003d4:	0843      	lsrs	r3, r0, #1
 80003d6:	428b      	cmp	r3, r1
 80003d8:	d301      	bcc.n	80003de <__divsi3+0x19e>
 80003da:	004b      	lsls	r3, r1, #1
 80003dc:	1ac0      	subs	r0, r0, r3
 80003de:	4152      	adcs	r2, r2
 80003e0:	1a41      	subs	r1, r0, r1
 80003e2:	d200      	bcs.n	80003e6 <__divsi3+0x1a6>
 80003e4:	4601      	mov	r1, r0
 80003e6:	4663      	mov	r3, ip
 80003e8:	4152      	adcs	r2, r2
 80003ea:	105b      	asrs	r3, r3, #1
 80003ec:	4610      	mov	r0, r2
 80003ee:	d301      	bcc.n	80003f4 <__divsi3+0x1b4>
 80003f0:	4240      	negs	r0, r0
 80003f2:	2b00      	cmp	r3, #0
 80003f4:	d500      	bpl.n	80003f8 <__divsi3+0x1b8>
 80003f6:	4249      	negs	r1, r1
 80003f8:	4770      	bx	lr
 80003fa:	4663      	mov	r3, ip
 80003fc:	105b      	asrs	r3, r3, #1
 80003fe:	d300      	bcc.n	8000402 <__divsi3+0x1c2>
 8000400:	4240      	negs	r0, r0
 8000402:	b501      	push	{r0, lr}
 8000404:	2000      	movs	r0, #0
 8000406:	f000 f805 	bl	8000414 <__aeabi_idiv0>
 800040a:	bd02      	pop	{r1, pc}

0800040c <__aeabi_idivmod>:
 800040c:	2900      	cmp	r1, #0
 800040e:	d0f8      	beq.n	8000402 <__divsi3+0x1c2>
 8000410:	e716      	b.n	8000240 <__divsi3>
 8000412:	4770      	bx	lr

08000414 <__aeabi_idiv0>:
 8000414:	4770      	bx	lr
 8000416:	46c0      	nop			@ (mov r8, r8)

08000418 <__aeabi_f2iz>:
 8000418:	0241      	lsls	r1, r0, #9
 800041a:	0042      	lsls	r2, r0, #1
 800041c:	0fc3      	lsrs	r3, r0, #31
 800041e:	0a49      	lsrs	r1, r1, #9
 8000420:	2000      	movs	r0, #0
 8000422:	0e12      	lsrs	r2, r2, #24
 8000424:	2a7e      	cmp	r2, #126	@ 0x7e
 8000426:	dd03      	ble.n	8000430 <__aeabi_f2iz+0x18>
 8000428:	2a9d      	cmp	r2, #157	@ 0x9d
 800042a:	dd02      	ble.n	8000432 <__aeabi_f2iz+0x1a>
 800042c:	4a09      	ldr	r2, [pc, #36]	@ (8000454 <__aeabi_f2iz+0x3c>)
 800042e:	1898      	adds	r0, r3, r2
 8000430:	4770      	bx	lr
 8000432:	2080      	movs	r0, #128	@ 0x80
 8000434:	0400      	lsls	r0, r0, #16
 8000436:	4301      	orrs	r1, r0
 8000438:	2a95      	cmp	r2, #149	@ 0x95
 800043a:	dc07      	bgt.n	800044c <__aeabi_f2iz+0x34>
 800043c:	2096      	movs	r0, #150	@ 0x96
 800043e:	1a82      	subs	r2, r0, r2
 8000440:	40d1      	lsrs	r1, r2
 8000442:	4248      	negs	r0, r1
 8000444:	2b00      	cmp	r3, #0
 8000446:	d1f3      	bne.n	8000430 <__aeabi_f2iz+0x18>
 8000448:	0008      	movs	r0, r1
 800044a:	e7f1      	b.n	8000430 <__aeabi_f2iz+0x18>
 800044c:	3a96      	subs	r2, #150	@ 0x96
 800044e:	4091      	lsls	r1, r2
 8000450:	e7f7      	b.n	8000442 <__aeabi_f2iz+0x2a>
 8000452:	46c0      	nop			@ (mov r8, r8)
 8000454:	7fffffff 	.word	0x7fffffff

08000458 <__aeabi_i2f>:
 8000458:	b570      	push	{r4, r5, r6, lr}
 800045a:	2800      	cmp	r0, #0
 800045c:	d013      	beq.n	8000486 <__aeabi_i2f+0x2e>
 800045e:	17c3      	asrs	r3, r0, #31
 8000460:	18c5      	adds	r5, r0, r3
 8000462:	405d      	eors	r5, r3
 8000464:	0fc4      	lsrs	r4, r0, #31
 8000466:	0028      	movs	r0, r5
 8000468:	f001 f9f2 	bl	8001850 <__clzsi2>
 800046c:	239e      	movs	r3, #158	@ 0x9e
 800046e:	0001      	movs	r1, r0
 8000470:	1a1b      	subs	r3, r3, r0
 8000472:	2b96      	cmp	r3, #150	@ 0x96
 8000474:	dc0f      	bgt.n	8000496 <__aeabi_i2f+0x3e>
 8000476:	2808      	cmp	r0, #8
 8000478:	d034      	beq.n	80004e4 <__aeabi_i2f+0x8c>
 800047a:	3908      	subs	r1, #8
 800047c:	408d      	lsls	r5, r1
 800047e:	026d      	lsls	r5, r5, #9
 8000480:	0a6d      	lsrs	r5, r5, #9
 8000482:	b2d8      	uxtb	r0, r3
 8000484:	e002      	b.n	800048c <__aeabi_i2f+0x34>
 8000486:	2400      	movs	r4, #0
 8000488:	2000      	movs	r0, #0
 800048a:	2500      	movs	r5, #0
 800048c:	05c0      	lsls	r0, r0, #23
 800048e:	4328      	orrs	r0, r5
 8000490:	07e4      	lsls	r4, r4, #31
 8000492:	4320      	orrs	r0, r4
 8000494:	bd70      	pop	{r4, r5, r6, pc}
 8000496:	2b99      	cmp	r3, #153	@ 0x99
 8000498:	dc16      	bgt.n	80004c8 <__aeabi_i2f+0x70>
 800049a:	1f42      	subs	r2, r0, #5
 800049c:	2805      	cmp	r0, #5
 800049e:	d000      	beq.n	80004a2 <__aeabi_i2f+0x4a>
 80004a0:	4095      	lsls	r5, r2
 80004a2:	002a      	movs	r2, r5
 80004a4:	4811      	ldr	r0, [pc, #68]	@ (80004ec <__aeabi_i2f+0x94>)
 80004a6:	4002      	ands	r2, r0
 80004a8:	076e      	lsls	r6, r5, #29
 80004aa:	d009      	beq.n	80004c0 <__aeabi_i2f+0x68>
 80004ac:	260f      	movs	r6, #15
 80004ae:	4035      	ands	r5, r6
 80004b0:	2d04      	cmp	r5, #4
 80004b2:	d005      	beq.n	80004c0 <__aeabi_i2f+0x68>
 80004b4:	3204      	adds	r2, #4
 80004b6:	0155      	lsls	r5, r2, #5
 80004b8:	d502      	bpl.n	80004c0 <__aeabi_i2f+0x68>
 80004ba:	239f      	movs	r3, #159	@ 0x9f
 80004bc:	4002      	ands	r2, r0
 80004be:	1a5b      	subs	r3, r3, r1
 80004c0:	0192      	lsls	r2, r2, #6
 80004c2:	0a55      	lsrs	r5, r2, #9
 80004c4:	b2d8      	uxtb	r0, r3
 80004c6:	e7e1      	b.n	800048c <__aeabi_i2f+0x34>
 80004c8:	2205      	movs	r2, #5
 80004ca:	1a12      	subs	r2, r2, r0
 80004cc:	0028      	movs	r0, r5
 80004ce:	40d0      	lsrs	r0, r2
 80004d0:	0002      	movs	r2, r0
 80004d2:	0008      	movs	r0, r1
 80004d4:	301b      	adds	r0, #27
 80004d6:	4085      	lsls	r5, r0
 80004d8:	0028      	movs	r0, r5
 80004da:	1e45      	subs	r5, r0, #1
 80004dc:	41a8      	sbcs	r0, r5
 80004de:	4302      	orrs	r2, r0
 80004e0:	0015      	movs	r5, r2
 80004e2:	e7de      	b.n	80004a2 <__aeabi_i2f+0x4a>
 80004e4:	026d      	lsls	r5, r5, #9
 80004e6:	2096      	movs	r0, #150	@ 0x96
 80004e8:	0a6d      	lsrs	r5, r5, #9
 80004ea:	e7cf      	b.n	800048c <__aeabi_i2f+0x34>
 80004ec:	fbffffff 	.word	0xfbffffff

080004f0 <__aeabi_dadd>:
 80004f0:	b5f0      	push	{r4, r5, r6, r7, lr}
 80004f2:	4657      	mov	r7, sl
 80004f4:	464e      	mov	r6, r9
 80004f6:	4645      	mov	r5, r8
 80004f8:	46de      	mov	lr, fp
 80004fa:	b5e0      	push	{r5, r6, r7, lr}
 80004fc:	b083      	sub	sp, #12
 80004fe:	9000      	str	r0, [sp, #0]
 8000500:	9101      	str	r1, [sp, #4]
 8000502:	030c      	lsls	r4, r1, #12
 8000504:	004f      	lsls	r7, r1, #1
 8000506:	0fce      	lsrs	r6, r1, #31
 8000508:	0a61      	lsrs	r1, r4, #9
 800050a:	9c00      	ldr	r4, [sp, #0]
 800050c:	031d      	lsls	r5, r3, #12
 800050e:	0f64      	lsrs	r4, r4, #29
 8000510:	430c      	orrs	r4, r1
 8000512:	9900      	ldr	r1, [sp, #0]
 8000514:	9200      	str	r2, [sp, #0]
 8000516:	9301      	str	r3, [sp, #4]
 8000518:	00c8      	lsls	r0, r1, #3
 800051a:	0059      	lsls	r1, r3, #1
 800051c:	0d4b      	lsrs	r3, r1, #21
 800051e:	4699      	mov	r9, r3
 8000520:	9a00      	ldr	r2, [sp, #0]
 8000522:	9b01      	ldr	r3, [sp, #4]
 8000524:	0a6d      	lsrs	r5, r5, #9
 8000526:	0fd9      	lsrs	r1, r3, #31
 8000528:	0f53      	lsrs	r3, r2, #29
 800052a:	432b      	orrs	r3, r5
 800052c:	469a      	mov	sl, r3
 800052e:	9b00      	ldr	r3, [sp, #0]
 8000530:	0d7f      	lsrs	r7, r7, #21
 8000532:	00da      	lsls	r2, r3, #3
 8000534:	4694      	mov	ip, r2
 8000536:	464a      	mov	r2, r9
 8000538:	46b0      	mov	r8, r6
 800053a:	1aba      	subs	r2, r7, r2
 800053c:	428e      	cmp	r6, r1
 800053e:	d100      	bne.n	8000542 <__aeabi_dadd+0x52>
 8000540:	e0b0      	b.n	80006a4 <__aeabi_dadd+0x1b4>
 8000542:	2a00      	cmp	r2, #0
 8000544:	dc00      	bgt.n	8000548 <__aeabi_dadd+0x58>
 8000546:	e078      	b.n	800063a <__aeabi_dadd+0x14a>
 8000548:	4649      	mov	r1, r9
 800054a:	2900      	cmp	r1, #0
 800054c:	d100      	bne.n	8000550 <__aeabi_dadd+0x60>
 800054e:	e0e9      	b.n	8000724 <__aeabi_dadd+0x234>
 8000550:	49c9      	ldr	r1, [pc, #804]	@ (8000878 <__aeabi_dadd+0x388>)
 8000552:	428f      	cmp	r7, r1
 8000554:	d100      	bne.n	8000558 <__aeabi_dadd+0x68>
 8000556:	e195      	b.n	8000884 <__aeabi_dadd+0x394>
 8000558:	2501      	movs	r5, #1
 800055a:	2a38      	cmp	r2, #56	@ 0x38
 800055c:	dc16      	bgt.n	800058c <__aeabi_dadd+0x9c>
 800055e:	2180      	movs	r1, #128	@ 0x80
 8000560:	4653      	mov	r3, sl
 8000562:	0409      	lsls	r1, r1, #16
 8000564:	430b      	orrs	r3, r1
 8000566:	469a      	mov	sl, r3
 8000568:	2a1f      	cmp	r2, #31
 800056a:	dd00      	ble.n	800056e <__aeabi_dadd+0x7e>
 800056c:	e1e7      	b.n	800093e <__aeabi_dadd+0x44e>
 800056e:	2120      	movs	r1, #32
 8000570:	4655      	mov	r5, sl
 8000572:	1a8b      	subs	r3, r1, r2
 8000574:	4661      	mov	r1, ip
 8000576:	409d      	lsls	r5, r3
 8000578:	40d1      	lsrs	r1, r2
 800057a:	430d      	orrs	r5, r1
 800057c:	4661      	mov	r1, ip
 800057e:	4099      	lsls	r1, r3
 8000580:	1e4b      	subs	r3, r1, #1
 8000582:	4199      	sbcs	r1, r3
 8000584:	4653      	mov	r3, sl
 8000586:	40d3      	lsrs	r3, r2
 8000588:	430d      	orrs	r5, r1
 800058a:	1ae4      	subs	r4, r4, r3
 800058c:	1b45      	subs	r5, r0, r5
 800058e:	42a8      	cmp	r0, r5
 8000590:	4180      	sbcs	r0, r0
 8000592:	4240      	negs	r0, r0
 8000594:	1a24      	subs	r4, r4, r0
 8000596:	0223      	lsls	r3, r4, #8
 8000598:	d400      	bmi.n	800059c <__aeabi_dadd+0xac>
 800059a:	e10f      	b.n	80007bc <__aeabi_dadd+0x2cc>
 800059c:	0264      	lsls	r4, r4, #9
 800059e:	0a64      	lsrs	r4, r4, #9
 80005a0:	2c00      	cmp	r4, #0
 80005a2:	d100      	bne.n	80005a6 <__aeabi_dadd+0xb6>
 80005a4:	e139      	b.n	800081a <__aeabi_dadd+0x32a>
 80005a6:	0020      	movs	r0, r4
 80005a8:	f001 f952 	bl	8001850 <__clzsi2>
 80005ac:	0003      	movs	r3, r0
 80005ae:	3b08      	subs	r3, #8
 80005b0:	2120      	movs	r1, #32
 80005b2:	0028      	movs	r0, r5
 80005b4:	1aca      	subs	r2, r1, r3
 80005b6:	40d0      	lsrs	r0, r2
 80005b8:	409c      	lsls	r4, r3
 80005ba:	0002      	movs	r2, r0
 80005bc:	409d      	lsls	r5, r3
 80005be:	4322      	orrs	r2, r4
 80005c0:	429f      	cmp	r7, r3
 80005c2:	dd00      	ble.n	80005c6 <__aeabi_dadd+0xd6>
 80005c4:	e173      	b.n	80008ae <__aeabi_dadd+0x3be>
 80005c6:	1bd8      	subs	r0, r3, r7
 80005c8:	3001      	adds	r0, #1
 80005ca:	1a09      	subs	r1, r1, r0
 80005cc:	002c      	movs	r4, r5
 80005ce:	408d      	lsls	r5, r1
 80005d0:	40c4      	lsrs	r4, r0
 80005d2:	1e6b      	subs	r3, r5, #1
 80005d4:	419d      	sbcs	r5, r3
 80005d6:	0013      	movs	r3, r2
 80005d8:	40c2      	lsrs	r2, r0
 80005da:	408b      	lsls	r3, r1
 80005dc:	4325      	orrs	r5, r4
 80005de:	2700      	movs	r7, #0
 80005e0:	0014      	movs	r4, r2
 80005e2:	431d      	orrs	r5, r3
 80005e4:	076b      	lsls	r3, r5, #29
 80005e6:	d009      	beq.n	80005fc <__aeabi_dadd+0x10c>
 80005e8:	230f      	movs	r3, #15
 80005ea:	402b      	ands	r3, r5
 80005ec:	2b04      	cmp	r3, #4
 80005ee:	d005      	beq.n	80005fc <__aeabi_dadd+0x10c>
 80005f0:	1d2b      	adds	r3, r5, #4
 80005f2:	42ab      	cmp	r3, r5
 80005f4:	41ad      	sbcs	r5, r5
 80005f6:	426d      	negs	r5, r5
 80005f8:	1964      	adds	r4, r4, r5
 80005fa:	001d      	movs	r5, r3
 80005fc:	0223      	lsls	r3, r4, #8
 80005fe:	d400      	bmi.n	8000602 <__aeabi_dadd+0x112>
 8000600:	e12d      	b.n	800085e <__aeabi_dadd+0x36e>
 8000602:	4a9d      	ldr	r2, [pc, #628]	@ (8000878 <__aeabi_dadd+0x388>)
 8000604:	3701      	adds	r7, #1
 8000606:	4297      	cmp	r7, r2
 8000608:	d100      	bne.n	800060c <__aeabi_dadd+0x11c>
 800060a:	e0d3      	b.n	80007b4 <__aeabi_dadd+0x2c4>
 800060c:	4646      	mov	r6, r8
 800060e:	499b      	ldr	r1, [pc, #620]	@ (800087c <__aeabi_dadd+0x38c>)
 8000610:	08ed      	lsrs	r5, r5, #3
 8000612:	4021      	ands	r1, r4
 8000614:	074a      	lsls	r2, r1, #29
 8000616:	432a      	orrs	r2, r5
 8000618:	057c      	lsls	r4, r7, #21
 800061a:	024d      	lsls	r5, r1, #9
 800061c:	0b2d      	lsrs	r5, r5, #12
 800061e:	0d64      	lsrs	r4, r4, #21
 8000620:	0524      	lsls	r4, r4, #20
 8000622:	432c      	orrs	r4, r5
 8000624:	07f6      	lsls	r6, r6, #31
 8000626:	4334      	orrs	r4, r6
 8000628:	0010      	movs	r0, r2
 800062a:	0021      	movs	r1, r4
 800062c:	b003      	add	sp, #12
 800062e:	bcf0      	pop	{r4, r5, r6, r7}
 8000630:	46bb      	mov	fp, r7
 8000632:	46b2      	mov	sl, r6
 8000634:	46a9      	mov	r9, r5
 8000636:	46a0      	mov	r8, r4
 8000638:	bdf0      	pop	{r4, r5, r6, r7, pc}
 800063a:	2a00      	cmp	r2, #0
 800063c:	d100      	bne.n	8000640 <__aeabi_dadd+0x150>
 800063e:	e084      	b.n	800074a <__aeabi_dadd+0x25a>
 8000640:	464a      	mov	r2, r9
 8000642:	1bd2      	subs	r2, r2, r7
 8000644:	2f00      	cmp	r7, #0
 8000646:	d000      	beq.n	800064a <__aeabi_dadd+0x15a>
 8000648:	e16d      	b.n	8000926 <__aeabi_dadd+0x436>
 800064a:	0025      	movs	r5, r4
 800064c:	4305      	orrs	r5, r0
 800064e:	d100      	bne.n	8000652 <__aeabi_dadd+0x162>
 8000650:	e127      	b.n	80008a2 <__aeabi_dadd+0x3b2>
 8000652:	1e56      	subs	r6, r2, #1
 8000654:	2a01      	cmp	r2, #1
 8000656:	d100      	bne.n	800065a <__aeabi_dadd+0x16a>
 8000658:	e23b      	b.n	8000ad2 <__aeabi_dadd+0x5e2>
 800065a:	4d87      	ldr	r5, [pc, #540]	@ (8000878 <__aeabi_dadd+0x388>)
 800065c:	42aa      	cmp	r2, r5
 800065e:	d100      	bne.n	8000662 <__aeabi_dadd+0x172>
 8000660:	e26a      	b.n	8000b38 <__aeabi_dadd+0x648>
 8000662:	2501      	movs	r5, #1
 8000664:	2e38      	cmp	r6, #56	@ 0x38
 8000666:	dc12      	bgt.n	800068e <__aeabi_dadd+0x19e>
 8000668:	0032      	movs	r2, r6
 800066a:	2a1f      	cmp	r2, #31
 800066c:	dd00      	ble.n	8000670 <__aeabi_dadd+0x180>
 800066e:	e1f8      	b.n	8000a62 <__aeabi_dadd+0x572>
 8000670:	2620      	movs	r6, #32
 8000672:	0025      	movs	r5, r4
 8000674:	1ab6      	subs	r6, r6, r2
 8000676:	0007      	movs	r7, r0
 8000678:	4653      	mov	r3, sl
 800067a:	40b0      	lsls	r0, r6
 800067c:	40d4      	lsrs	r4, r2
 800067e:	40b5      	lsls	r5, r6
 8000680:	40d7      	lsrs	r7, r2
 8000682:	1e46      	subs	r6, r0, #1
 8000684:	41b0      	sbcs	r0, r6
 8000686:	1b1b      	subs	r3, r3, r4
 8000688:	469a      	mov	sl, r3
 800068a:	433d      	orrs	r5, r7
 800068c:	4305      	orrs	r5, r0
 800068e:	4662      	mov	r2, ip
 8000690:	1b55      	subs	r5, r2, r5
 8000692:	45ac      	cmp	ip, r5
 8000694:	4192      	sbcs	r2, r2
 8000696:	4653      	mov	r3, sl
 8000698:	4252      	negs	r2, r2
 800069a:	000e      	movs	r6, r1
 800069c:	464f      	mov	r7, r9
 800069e:	4688      	mov	r8, r1
 80006a0:	1a9c      	subs	r4, r3, r2
 80006a2:	e778      	b.n	8000596 <__aeabi_dadd+0xa6>
 80006a4:	2a00      	cmp	r2, #0
 80006a6:	dc00      	bgt.n	80006aa <__aeabi_dadd+0x1ba>
 80006a8:	e08e      	b.n	80007c8 <__aeabi_dadd+0x2d8>
 80006aa:	4649      	mov	r1, r9
 80006ac:	2900      	cmp	r1, #0
 80006ae:	d175      	bne.n	800079c <__aeabi_dadd+0x2ac>
 80006b0:	4661      	mov	r1, ip
 80006b2:	4653      	mov	r3, sl
 80006b4:	4319      	orrs	r1, r3
 80006b6:	d100      	bne.n	80006ba <__aeabi_dadd+0x1ca>
 80006b8:	e0f6      	b.n	80008a8 <__aeabi_dadd+0x3b8>
 80006ba:	1e51      	subs	r1, r2, #1
 80006bc:	2a01      	cmp	r2, #1
 80006be:	d100      	bne.n	80006c2 <__aeabi_dadd+0x1d2>
 80006c0:	e191      	b.n	80009e6 <__aeabi_dadd+0x4f6>
 80006c2:	4d6d      	ldr	r5, [pc, #436]	@ (8000878 <__aeabi_dadd+0x388>)
 80006c4:	42aa      	cmp	r2, r5
 80006c6:	d100      	bne.n	80006ca <__aeabi_dadd+0x1da>
 80006c8:	e0dc      	b.n	8000884 <__aeabi_dadd+0x394>
 80006ca:	2501      	movs	r5, #1
 80006cc:	2938      	cmp	r1, #56	@ 0x38
 80006ce:	dc14      	bgt.n	80006fa <__aeabi_dadd+0x20a>
 80006d0:	000a      	movs	r2, r1
 80006d2:	2a1f      	cmp	r2, #31
 80006d4:	dd00      	ble.n	80006d8 <__aeabi_dadd+0x1e8>
 80006d6:	e1a2      	b.n	8000a1e <__aeabi_dadd+0x52e>
 80006d8:	2120      	movs	r1, #32
 80006da:	4653      	mov	r3, sl
 80006dc:	1a89      	subs	r1, r1, r2
 80006de:	408b      	lsls	r3, r1
 80006e0:	001d      	movs	r5, r3
 80006e2:	4663      	mov	r3, ip
 80006e4:	40d3      	lsrs	r3, r2
 80006e6:	431d      	orrs	r5, r3
 80006e8:	4663      	mov	r3, ip
 80006ea:	408b      	lsls	r3, r1
 80006ec:	0019      	movs	r1, r3
 80006ee:	1e4b      	subs	r3, r1, #1
 80006f0:	4199      	sbcs	r1, r3
 80006f2:	4653      	mov	r3, sl
 80006f4:	40d3      	lsrs	r3, r2
 80006f6:	430d      	orrs	r5, r1
 80006f8:	18e4      	adds	r4, r4, r3
 80006fa:	182d      	adds	r5, r5, r0
 80006fc:	4285      	cmp	r5, r0
 80006fe:	4180      	sbcs	r0, r0
 8000700:	4240      	negs	r0, r0
 8000702:	1824      	adds	r4, r4, r0
 8000704:	0223      	lsls	r3, r4, #8
 8000706:	d559      	bpl.n	80007bc <__aeabi_dadd+0x2cc>
 8000708:	4b5b      	ldr	r3, [pc, #364]	@ (8000878 <__aeabi_dadd+0x388>)
 800070a:	3701      	adds	r7, #1
 800070c:	429f      	cmp	r7, r3
 800070e:	d051      	beq.n	80007b4 <__aeabi_dadd+0x2c4>
 8000710:	2101      	movs	r1, #1
 8000712:	4b5a      	ldr	r3, [pc, #360]	@ (800087c <__aeabi_dadd+0x38c>)
 8000714:	086a      	lsrs	r2, r5, #1
 8000716:	401c      	ands	r4, r3
 8000718:	4029      	ands	r1, r5
 800071a:	430a      	orrs	r2, r1
 800071c:	07e5      	lsls	r5, r4, #31
 800071e:	4315      	orrs	r5, r2
 8000720:	0864      	lsrs	r4, r4, #1
 8000722:	e75f      	b.n	80005e4 <__aeabi_dadd+0xf4>
 8000724:	4661      	mov	r1, ip
 8000726:	4653      	mov	r3, sl
 8000728:	4319      	orrs	r1, r3
 800072a:	d100      	bne.n	800072e <__aeabi_dadd+0x23e>
 800072c:	e0bc      	b.n	80008a8 <__aeabi_dadd+0x3b8>
 800072e:	1e51      	subs	r1, r2, #1
 8000730:	2a01      	cmp	r2, #1
 8000732:	d100      	bne.n	8000736 <__aeabi_dadd+0x246>
 8000734:	e164      	b.n	8000a00 <__aeabi_dadd+0x510>
 8000736:	4d50      	ldr	r5, [pc, #320]	@ (8000878 <__aeabi_dadd+0x388>)
 8000738:	42aa      	cmp	r2, r5
 800073a:	d100      	bne.n	800073e <__aeabi_dadd+0x24e>
 800073c:	e16a      	b.n	8000a14 <__aeabi_dadd+0x524>
 800073e:	2501      	movs	r5, #1
 8000740:	2938      	cmp	r1, #56	@ 0x38
 8000742:	dd00      	ble.n	8000746 <__aeabi_dadd+0x256>
 8000744:	e722      	b.n	800058c <__aeabi_dadd+0x9c>
 8000746:	000a      	movs	r2, r1
 8000748:	e70e      	b.n	8000568 <__aeabi_dadd+0x78>
 800074a:	4a4d      	ldr	r2, [pc, #308]	@ (8000880 <__aeabi_dadd+0x390>)
 800074c:	1c7d      	adds	r5, r7, #1
 800074e:	4215      	tst	r5, r2
 8000750:	d000      	beq.n	8000754 <__aeabi_dadd+0x264>
 8000752:	e0d0      	b.n	80008f6 <__aeabi_dadd+0x406>
 8000754:	0025      	movs	r5, r4
 8000756:	4662      	mov	r2, ip
 8000758:	4653      	mov	r3, sl
 800075a:	4305      	orrs	r5, r0
 800075c:	431a      	orrs	r2, r3
 800075e:	2f00      	cmp	r7, #0
 8000760:	d000      	beq.n	8000764 <__aeabi_dadd+0x274>
 8000762:	e137      	b.n	80009d4 <__aeabi_dadd+0x4e4>
 8000764:	2d00      	cmp	r5, #0
 8000766:	d100      	bne.n	800076a <__aeabi_dadd+0x27a>
 8000768:	e1a8      	b.n	8000abc <__aeabi_dadd+0x5cc>
 800076a:	2a00      	cmp	r2, #0
 800076c:	d100      	bne.n	8000770 <__aeabi_dadd+0x280>
 800076e:	e16a      	b.n	8000a46 <__aeabi_dadd+0x556>
 8000770:	4663      	mov	r3, ip
 8000772:	1ac5      	subs	r5, r0, r3
 8000774:	4653      	mov	r3, sl
 8000776:	1ae2      	subs	r2, r4, r3
 8000778:	42a8      	cmp	r0, r5
 800077a:	419b      	sbcs	r3, r3
 800077c:	425b      	negs	r3, r3
 800077e:	1ad3      	subs	r3, r2, r3
 8000780:	021a      	lsls	r2, r3, #8
 8000782:	d400      	bmi.n	8000786 <__aeabi_dadd+0x296>
 8000784:	e203      	b.n	8000b8e <__aeabi_dadd+0x69e>
 8000786:	4663      	mov	r3, ip
 8000788:	1a1d      	subs	r5, r3, r0
 800078a:	45ac      	cmp	ip, r5
 800078c:	4192      	sbcs	r2, r2
 800078e:	4653      	mov	r3, sl
 8000790:	4252      	negs	r2, r2
 8000792:	1b1c      	subs	r4, r3, r4
 8000794:	000e      	movs	r6, r1
 8000796:	4688      	mov	r8, r1
 8000798:	1aa4      	subs	r4, r4, r2
 800079a:	e723      	b.n	80005e4 <__aeabi_dadd+0xf4>
 800079c:	4936      	ldr	r1, [pc, #216]	@ (8000878 <__aeabi_dadd+0x388>)
 800079e:	428f      	cmp	r7, r1
 80007a0:	d070      	beq.n	8000884 <__aeabi_dadd+0x394>
 80007a2:	2501      	movs	r5, #1
 80007a4:	2a38      	cmp	r2, #56	@ 0x38
 80007a6:	dca8      	bgt.n	80006fa <__aeabi_dadd+0x20a>
 80007a8:	2180      	movs	r1, #128	@ 0x80
 80007aa:	4653      	mov	r3, sl
 80007ac:	0409      	lsls	r1, r1, #16
 80007ae:	430b      	orrs	r3, r1
 80007b0:	469a      	mov	sl, r3
 80007b2:	e78e      	b.n	80006d2 <__aeabi_dadd+0x1e2>
 80007b4:	003c      	movs	r4, r7
 80007b6:	2500      	movs	r5, #0
 80007b8:	2200      	movs	r2, #0
 80007ba:	e731      	b.n	8000620 <__aeabi_dadd+0x130>
 80007bc:	2307      	movs	r3, #7
 80007be:	402b      	ands	r3, r5
 80007c0:	2b00      	cmp	r3, #0
 80007c2:	d000      	beq.n	80007c6 <__aeabi_dadd+0x2d6>
 80007c4:	e710      	b.n	80005e8 <__aeabi_dadd+0xf8>
 80007c6:	e093      	b.n	80008f0 <__aeabi_dadd+0x400>
 80007c8:	2a00      	cmp	r2, #0
 80007ca:	d074      	beq.n	80008b6 <__aeabi_dadd+0x3c6>
 80007cc:	464a      	mov	r2, r9
 80007ce:	1bd2      	subs	r2, r2, r7
 80007d0:	2f00      	cmp	r7, #0
 80007d2:	d100      	bne.n	80007d6 <__aeabi_dadd+0x2e6>
 80007d4:	e0c7      	b.n	8000966 <__aeabi_dadd+0x476>
 80007d6:	4928      	ldr	r1, [pc, #160]	@ (8000878 <__aeabi_dadd+0x388>)
 80007d8:	4589      	cmp	r9, r1
 80007da:	d100      	bne.n	80007de <__aeabi_dadd+0x2ee>
 80007dc:	e185      	b.n	8000aea <__aeabi_dadd+0x5fa>
 80007de:	2501      	movs	r5, #1
 80007e0:	2a38      	cmp	r2, #56	@ 0x38
 80007e2:	dc12      	bgt.n	800080a <__aeabi_dadd+0x31a>
 80007e4:	2180      	movs	r1, #128	@ 0x80
 80007e6:	0409      	lsls	r1, r1, #16
 80007e8:	430c      	orrs	r4, r1
 80007ea:	2a1f      	cmp	r2, #31
 80007ec:	dd00      	ble.n	80007f0 <__aeabi_dadd+0x300>
 80007ee:	e1ab      	b.n	8000b48 <__aeabi_dadd+0x658>
 80007f0:	2120      	movs	r1, #32
 80007f2:	0025      	movs	r5, r4
 80007f4:	1a89      	subs	r1, r1, r2
 80007f6:	0007      	movs	r7, r0
 80007f8:	4088      	lsls	r0, r1
 80007fa:	408d      	lsls	r5, r1
 80007fc:	40d7      	lsrs	r7, r2
 80007fe:	1e41      	subs	r1, r0, #1
 8000800:	4188      	sbcs	r0, r1
 8000802:	40d4      	lsrs	r4, r2
 8000804:	433d      	orrs	r5, r7
 8000806:	4305      	orrs	r5, r0
 8000808:	44a2      	add	sl, r4
 800080a:	4465      	add	r5, ip
 800080c:	4565      	cmp	r5, ip
 800080e:	4192      	sbcs	r2, r2
 8000810:	4252      	negs	r2, r2
 8000812:	4452      	add	r2, sl
 8000814:	0014      	movs	r4, r2
 8000816:	464f      	mov	r7, r9
 8000818:	e774      	b.n	8000704 <__aeabi_dadd+0x214>
 800081a:	0028      	movs	r0, r5
 800081c:	f001 f818 	bl	8001850 <__clzsi2>
 8000820:	0003      	movs	r3, r0
 8000822:	3318      	adds	r3, #24
 8000824:	2b1f      	cmp	r3, #31
 8000826:	dc00      	bgt.n	800082a <__aeabi_dadd+0x33a>
 8000828:	e6c2      	b.n	80005b0 <__aeabi_dadd+0xc0>
 800082a:	002a      	movs	r2, r5
 800082c:	3808      	subs	r0, #8
 800082e:	4082      	lsls	r2, r0
 8000830:	429f      	cmp	r7, r3
 8000832:	dd00      	ble.n	8000836 <__aeabi_dadd+0x346>
 8000834:	e0a9      	b.n	800098a <__aeabi_dadd+0x49a>
 8000836:	1bdb      	subs	r3, r3, r7
 8000838:	1c58      	adds	r0, r3, #1
 800083a:	281f      	cmp	r0, #31
 800083c:	dc00      	bgt.n	8000840 <__aeabi_dadd+0x350>
 800083e:	e1ac      	b.n	8000b9a <__aeabi_dadd+0x6aa>
 8000840:	0015      	movs	r5, r2
 8000842:	3b1f      	subs	r3, #31
 8000844:	40dd      	lsrs	r5, r3
 8000846:	2820      	cmp	r0, #32
 8000848:	d005      	beq.n	8000856 <__aeabi_dadd+0x366>
 800084a:	2340      	movs	r3, #64	@ 0x40
 800084c:	1a1b      	subs	r3, r3, r0
 800084e:	409a      	lsls	r2, r3
 8000850:	1e53      	subs	r3, r2, #1
 8000852:	419a      	sbcs	r2, r3
 8000854:	4315      	orrs	r5, r2
 8000856:	2307      	movs	r3, #7
 8000858:	2700      	movs	r7, #0
 800085a:	402b      	ands	r3, r5
 800085c:	e7b0      	b.n	80007c0 <__aeabi_dadd+0x2d0>
 800085e:	08ed      	lsrs	r5, r5, #3
 8000860:	4b05      	ldr	r3, [pc, #20]	@ (8000878 <__aeabi_dadd+0x388>)
 8000862:	0762      	lsls	r2, r4, #29
 8000864:	432a      	orrs	r2, r5
 8000866:	08e4      	lsrs	r4, r4, #3
 8000868:	429f      	cmp	r7, r3
 800086a:	d00f      	beq.n	800088c <__aeabi_dadd+0x39c>
 800086c:	0324      	lsls	r4, r4, #12
 800086e:	0b25      	lsrs	r5, r4, #12
 8000870:	057c      	lsls	r4, r7, #21
 8000872:	0d64      	lsrs	r4, r4, #21
 8000874:	e6d4      	b.n	8000620 <__aeabi_dadd+0x130>
 8000876:	46c0      	nop			@ (mov r8, r8)
 8000878:	000007ff 	.word	0x000007ff
 800087c:	ff7fffff 	.word	0xff7fffff
 8000880:	000007fe 	.word	0x000007fe
 8000884:	08c0      	lsrs	r0, r0, #3
 8000886:	0762      	lsls	r2, r4, #29
 8000888:	4302      	orrs	r2, r0
 800088a:	08e4      	lsrs	r4, r4, #3
 800088c:	0013      	movs	r3, r2
 800088e:	4323      	orrs	r3, r4
 8000890:	d100      	bne.n	8000894 <__aeabi_dadd+0x3a4>
 8000892:	e186      	b.n	8000ba2 <__aeabi_dadd+0x6b2>
 8000894:	2580      	movs	r5, #128	@ 0x80
 8000896:	032d      	lsls	r5, r5, #12
 8000898:	4325      	orrs	r5, r4
 800089a:	032d      	lsls	r5, r5, #12
 800089c:	4cc3      	ldr	r4, [pc, #780]	@ (8000bac <__aeabi_dadd+0x6bc>)
 800089e:	0b2d      	lsrs	r5, r5, #12
 80008a0:	e6be      	b.n	8000620 <__aeabi_dadd+0x130>
 80008a2:	4660      	mov	r0, ip
 80008a4:	4654      	mov	r4, sl
 80008a6:	000e      	movs	r6, r1
 80008a8:	0017      	movs	r7, r2
 80008aa:	08c5      	lsrs	r5, r0, #3
 80008ac:	e7d8      	b.n	8000860 <__aeabi_dadd+0x370>
 80008ae:	4cc0      	ldr	r4, [pc, #768]	@ (8000bb0 <__aeabi_dadd+0x6c0>)
 80008b0:	1aff      	subs	r7, r7, r3
 80008b2:	4014      	ands	r4, r2
 80008b4:	e696      	b.n	80005e4 <__aeabi_dadd+0xf4>
 80008b6:	4abf      	ldr	r2, [pc, #764]	@ (8000bb4 <__aeabi_dadd+0x6c4>)
 80008b8:	1c79      	adds	r1, r7, #1
 80008ba:	4211      	tst	r1, r2
 80008bc:	d16b      	bne.n	8000996 <__aeabi_dadd+0x4a6>
 80008be:	0022      	movs	r2, r4
 80008c0:	4302      	orrs	r2, r0
 80008c2:	2f00      	cmp	r7, #0
 80008c4:	d000      	beq.n	80008c8 <__aeabi_dadd+0x3d8>
 80008c6:	e0db      	b.n	8000a80 <__aeabi_dadd+0x590>
 80008c8:	2a00      	cmp	r2, #0
 80008ca:	d100      	bne.n	80008ce <__aeabi_dadd+0x3de>
 80008cc:	e12d      	b.n	8000b2a <__aeabi_dadd+0x63a>
 80008ce:	4662      	mov	r2, ip
 80008d0:	4653      	mov	r3, sl
 80008d2:	431a      	orrs	r2, r3
 80008d4:	d100      	bne.n	80008d8 <__aeabi_dadd+0x3e8>
 80008d6:	e0b6      	b.n	8000a46 <__aeabi_dadd+0x556>
 80008d8:	4663      	mov	r3, ip
 80008da:	18c5      	adds	r5, r0, r3
 80008dc:	4285      	cmp	r5, r0
 80008de:	4180      	sbcs	r0, r0
 80008e0:	4454      	add	r4, sl
 80008e2:	4240      	negs	r0, r0
 80008e4:	1824      	adds	r4, r4, r0
 80008e6:	0223      	lsls	r3, r4, #8
 80008e8:	d502      	bpl.n	80008f0 <__aeabi_dadd+0x400>
 80008ea:	000f      	movs	r7, r1
 80008ec:	4bb0      	ldr	r3, [pc, #704]	@ (8000bb0 <__aeabi_dadd+0x6c0>)
 80008ee:	401c      	ands	r4, r3
 80008f0:	003a      	movs	r2, r7
 80008f2:	0028      	movs	r0, r5
 80008f4:	e7d8      	b.n	80008a8 <__aeabi_dadd+0x3b8>
 80008f6:	4662      	mov	r2, ip
 80008f8:	1a85      	subs	r5, r0, r2
 80008fa:	42a8      	cmp	r0, r5
 80008fc:	4192      	sbcs	r2, r2
 80008fe:	4653      	mov	r3, sl
 8000900:	4252      	negs	r2, r2
 8000902:	4691      	mov	r9, r2
 8000904:	1ae3      	subs	r3, r4, r3
 8000906:	001a      	movs	r2, r3
 8000908:	464b      	mov	r3, r9
 800090a:	1ad2      	subs	r2, r2, r3
 800090c:	0013      	movs	r3, r2
 800090e:	4691      	mov	r9, r2
 8000910:	021a      	lsls	r2, r3, #8
 8000912:	d454      	bmi.n	80009be <__aeabi_dadd+0x4ce>
 8000914:	464a      	mov	r2, r9
 8000916:	464c      	mov	r4, r9
 8000918:	432a      	orrs	r2, r5
 800091a:	d000      	beq.n	800091e <__aeabi_dadd+0x42e>
 800091c:	e640      	b.n	80005a0 <__aeabi_dadd+0xb0>
 800091e:	2600      	movs	r6, #0
 8000920:	2400      	movs	r4, #0
 8000922:	2500      	movs	r5, #0
 8000924:	e67c      	b.n	8000620 <__aeabi_dadd+0x130>
 8000926:	4da1      	ldr	r5, [pc, #644]	@ (8000bac <__aeabi_dadd+0x6bc>)
 8000928:	45a9      	cmp	r9, r5
 800092a:	d100      	bne.n	800092e <__aeabi_dadd+0x43e>
 800092c:	e090      	b.n	8000a50 <__aeabi_dadd+0x560>
 800092e:	2501      	movs	r5, #1
 8000930:	2a38      	cmp	r2, #56	@ 0x38
 8000932:	dd00      	ble.n	8000936 <__aeabi_dadd+0x446>
 8000934:	e6ab      	b.n	800068e <__aeabi_dadd+0x19e>
 8000936:	2580      	movs	r5, #128	@ 0x80
 8000938:	042d      	lsls	r5, r5, #16
 800093a:	432c      	orrs	r4, r5
 800093c:	e695      	b.n	800066a <__aeabi_dadd+0x17a>
 800093e:	0011      	movs	r1, r2
 8000940:	4655      	mov	r5, sl
 8000942:	3920      	subs	r1, #32
 8000944:	40cd      	lsrs	r5, r1
 8000946:	46a9      	mov	r9, r5
 8000948:	2a20      	cmp	r2, #32
 800094a:	d006      	beq.n	800095a <__aeabi_dadd+0x46a>
 800094c:	2140      	movs	r1, #64	@ 0x40
 800094e:	4653      	mov	r3, sl
 8000950:	1a8a      	subs	r2, r1, r2
 8000952:	4093      	lsls	r3, r2
 8000954:	4662      	mov	r2, ip
 8000956:	431a      	orrs	r2, r3
 8000958:	4694      	mov	ip, r2
 800095a:	4665      	mov	r5, ip
 800095c:	1e6b      	subs	r3, r5, #1
 800095e:	419d      	sbcs	r5, r3
 8000960:	464b      	mov	r3, r9
 8000962:	431d      	orrs	r5, r3
 8000964:	e612      	b.n	800058c <__aeabi_dadd+0x9c>
 8000966:	0021      	movs	r1, r4
 8000968:	4301      	orrs	r1, r0
 800096a:	d100      	bne.n	800096e <__aeabi_dadd+0x47e>
 800096c:	e0c4      	b.n	8000af8 <__aeabi_dadd+0x608>
 800096e:	1e51      	subs	r1, r2, #1
 8000970:	2a01      	cmp	r2, #1
 8000972:	d100      	bne.n	8000976 <__aeabi_dadd+0x486>
 8000974:	e0fb      	b.n	8000b6e <__aeabi_dadd+0x67e>
 8000976:	4d8d      	ldr	r5, [pc, #564]	@ (8000bac <__aeabi_dadd+0x6bc>)
 8000978:	42aa      	cmp	r2, r5
 800097a:	d100      	bne.n	800097e <__aeabi_dadd+0x48e>
 800097c:	e0b5      	b.n	8000aea <__aeabi_dadd+0x5fa>
 800097e:	2501      	movs	r5, #1
 8000980:	2938      	cmp	r1, #56	@ 0x38
 8000982:	dd00      	ble.n	8000986 <__aeabi_dadd+0x496>
 8000984:	e741      	b.n	800080a <__aeabi_dadd+0x31a>
 8000986:	000a      	movs	r2, r1
 8000988:	e72f      	b.n	80007ea <__aeabi_dadd+0x2fa>
 800098a:	4c89      	ldr	r4, [pc, #548]	@ (8000bb0 <__aeabi_dadd+0x6c0>)
 800098c:	1aff      	subs	r7, r7, r3
 800098e:	4014      	ands	r4, r2
 8000990:	0762      	lsls	r2, r4, #29
 8000992:	08e4      	lsrs	r4, r4, #3
 8000994:	e76a      	b.n	800086c <__aeabi_dadd+0x37c>
 8000996:	4a85      	ldr	r2, [pc, #532]	@ (8000bac <__aeabi_dadd+0x6bc>)
 8000998:	4291      	cmp	r1, r2
 800099a:	d100      	bne.n	800099e <__aeabi_dadd+0x4ae>
 800099c:	e0e3      	b.n	8000b66 <__aeabi_dadd+0x676>
 800099e:	4663      	mov	r3, ip
 80009a0:	18c2      	adds	r2, r0, r3
 80009a2:	4282      	cmp	r2, r0
 80009a4:	4180      	sbcs	r0, r0
 80009a6:	0023      	movs	r3, r4
 80009a8:	4240      	negs	r0, r0
 80009aa:	4453      	add	r3, sl
 80009ac:	181b      	adds	r3, r3, r0
 80009ae:	07dd      	lsls	r5, r3, #31
 80009b0:	085c      	lsrs	r4, r3, #1
 80009b2:	2307      	movs	r3, #7
 80009b4:	0852      	lsrs	r2, r2, #1
 80009b6:	4315      	orrs	r5, r2
 80009b8:	000f      	movs	r7, r1
 80009ba:	402b      	ands	r3, r5
 80009bc:	e700      	b.n	80007c0 <__aeabi_dadd+0x2d0>
 80009be:	4663      	mov	r3, ip
 80009c0:	1a1d      	subs	r5, r3, r0
 80009c2:	45ac      	cmp	ip, r5
 80009c4:	4192      	sbcs	r2, r2
 80009c6:	4653      	mov	r3, sl
 80009c8:	4252      	negs	r2, r2
 80009ca:	1b1c      	subs	r4, r3, r4
 80009cc:	000e      	movs	r6, r1
 80009ce:	4688      	mov	r8, r1
 80009d0:	1aa4      	subs	r4, r4, r2
 80009d2:	e5e5      	b.n	80005a0 <__aeabi_dadd+0xb0>
 80009d4:	2d00      	cmp	r5, #0
 80009d6:	d000      	beq.n	80009da <__aeabi_dadd+0x4ea>
 80009d8:	e091      	b.n	8000afe <__aeabi_dadd+0x60e>
 80009da:	2a00      	cmp	r2, #0
 80009dc:	d138      	bne.n	8000a50 <__aeabi_dadd+0x560>
 80009de:	2480      	movs	r4, #128	@ 0x80
 80009e0:	2600      	movs	r6, #0
 80009e2:	0324      	lsls	r4, r4, #12
 80009e4:	e756      	b.n	8000894 <__aeabi_dadd+0x3a4>
 80009e6:	4663      	mov	r3, ip
 80009e8:	18c5      	adds	r5, r0, r3
 80009ea:	4285      	cmp	r5, r0
 80009ec:	4180      	sbcs	r0, r0
 80009ee:	4454      	add	r4, sl
 80009f0:	4240      	negs	r0, r0
 80009f2:	1824      	adds	r4, r4, r0
 80009f4:	2701      	movs	r7, #1
 80009f6:	0223      	lsls	r3, r4, #8
 80009f8:	d400      	bmi.n	80009fc <__aeabi_dadd+0x50c>
 80009fa:	e6df      	b.n	80007bc <__aeabi_dadd+0x2cc>
 80009fc:	2702      	movs	r7, #2
 80009fe:	e687      	b.n	8000710 <__aeabi_dadd+0x220>
 8000a00:	4663      	mov	r3, ip
 8000a02:	1ac5      	subs	r5, r0, r3
 8000a04:	42a8      	cmp	r0, r5
 8000a06:	4180      	sbcs	r0, r0
 8000a08:	4653      	mov	r3, sl
 8000a0a:	4240      	negs	r0, r0
 8000a0c:	1ae4      	subs	r4, r4, r3
 8000a0e:	2701      	movs	r7, #1
 8000a10:	1a24      	subs	r4, r4, r0
 8000a12:	e5c0      	b.n	8000596 <__aeabi_dadd+0xa6>
 8000a14:	0762      	lsls	r2, r4, #29
 8000a16:	08c0      	lsrs	r0, r0, #3
 8000a18:	4302      	orrs	r2, r0
 8000a1a:	08e4      	lsrs	r4, r4, #3
 8000a1c:	e736      	b.n	800088c <__aeabi_dadd+0x39c>
 8000a1e:	0011      	movs	r1, r2
 8000a20:	4653      	mov	r3, sl
 8000a22:	3920      	subs	r1, #32
 8000a24:	40cb      	lsrs	r3, r1
 8000a26:	4699      	mov	r9, r3
 8000a28:	2a20      	cmp	r2, #32
 8000a2a:	d006      	beq.n	8000a3a <__aeabi_dadd+0x54a>
 8000a2c:	2140      	movs	r1, #64	@ 0x40
 8000a2e:	4653      	mov	r3, sl
 8000a30:	1a8a      	subs	r2, r1, r2
 8000a32:	4093      	lsls	r3, r2
 8000a34:	4662      	mov	r2, ip
 8000a36:	431a      	orrs	r2, r3
 8000a38:	4694      	mov	ip, r2
 8000a3a:	4665      	mov	r5, ip
 8000a3c:	1e6b      	subs	r3, r5, #1
 8000a3e:	419d      	sbcs	r5, r3
 8000a40:	464b      	mov	r3, r9
 8000a42:	431d      	orrs	r5, r3
 8000a44:	e659      	b.n	80006fa <__aeabi_dadd+0x20a>
 8000a46:	0762      	lsls	r2, r4, #29
 8000a48:	08c0      	lsrs	r0, r0, #3
 8000a4a:	4302      	orrs	r2, r0
 8000a4c:	08e4      	lsrs	r4, r4, #3
 8000a4e:	e70d      	b.n	800086c <__aeabi_dadd+0x37c>
 8000a50:	4653      	mov	r3, sl
 8000a52:	075a      	lsls	r2, r3, #29
 8000a54:	4663      	mov	r3, ip
 8000a56:	08d8      	lsrs	r0, r3, #3
 8000a58:	4653      	mov	r3, sl
 8000a5a:	000e      	movs	r6, r1
 8000a5c:	4302      	orrs	r2, r0
 8000a5e:	08dc      	lsrs	r4, r3, #3
 8000a60:	e714      	b.n	800088c <__aeabi_dadd+0x39c>
 8000a62:	0015      	movs	r5, r2
 8000a64:	0026      	movs	r6, r4
 8000a66:	3d20      	subs	r5, #32
 8000a68:	40ee      	lsrs	r6, r5
 8000a6a:	2a20      	cmp	r2, #32
 8000a6c:	d003      	beq.n	8000a76 <__aeabi_dadd+0x586>
 8000a6e:	2540      	movs	r5, #64	@ 0x40
 8000a70:	1aaa      	subs	r2, r5, r2
 8000a72:	4094      	lsls	r4, r2
 8000a74:	4320      	orrs	r0, r4
 8000a76:	1e42      	subs	r2, r0, #1
 8000a78:	4190      	sbcs	r0, r2
 8000a7a:	0005      	movs	r5, r0
 8000a7c:	4335      	orrs	r5, r6
 8000a7e:	e606      	b.n	800068e <__aeabi_dadd+0x19e>
 8000a80:	2a00      	cmp	r2, #0
 8000a82:	d07c      	beq.n	8000b7e <__aeabi_dadd+0x68e>
 8000a84:	4662      	mov	r2, ip
 8000a86:	4653      	mov	r3, sl
 8000a88:	08c0      	lsrs	r0, r0, #3
 8000a8a:	431a      	orrs	r2, r3
 8000a8c:	d100      	bne.n	8000a90 <__aeabi_dadd+0x5a0>
 8000a8e:	e6fa      	b.n	8000886 <__aeabi_dadd+0x396>
 8000a90:	0762      	lsls	r2, r4, #29
 8000a92:	4310      	orrs	r0, r2
 8000a94:	2280      	movs	r2, #128	@ 0x80
 8000a96:	08e4      	lsrs	r4, r4, #3
 8000a98:	0312      	lsls	r2, r2, #12
 8000a9a:	4214      	tst	r4, r2
 8000a9c:	d008      	beq.n	8000ab0 <__aeabi_dadd+0x5c0>
 8000a9e:	08d9      	lsrs	r1, r3, #3
 8000aa0:	4211      	tst	r1, r2
 8000aa2:	d105      	bne.n	8000ab0 <__aeabi_dadd+0x5c0>
 8000aa4:	4663      	mov	r3, ip
 8000aa6:	08d8      	lsrs	r0, r3, #3
 8000aa8:	4653      	mov	r3, sl
 8000aaa:	000c      	movs	r4, r1
 8000aac:	075b      	lsls	r3, r3, #29
 8000aae:	4318      	orrs	r0, r3
 8000ab0:	0f42      	lsrs	r2, r0, #29
 8000ab2:	00c0      	lsls	r0, r0, #3
 8000ab4:	08c0      	lsrs	r0, r0, #3
 8000ab6:	0752      	lsls	r2, r2, #29
 8000ab8:	4302      	orrs	r2, r0
 8000aba:	e6e7      	b.n	800088c <__aeabi_dadd+0x39c>
 8000abc:	2a00      	cmp	r2, #0
 8000abe:	d100      	bne.n	8000ac2 <__aeabi_dadd+0x5d2>
 8000ac0:	e72d      	b.n	800091e <__aeabi_dadd+0x42e>
 8000ac2:	4663      	mov	r3, ip
 8000ac4:	08d8      	lsrs	r0, r3, #3
 8000ac6:	4653      	mov	r3, sl
 8000ac8:	075a      	lsls	r2, r3, #29
 8000aca:	000e      	movs	r6, r1
 8000acc:	4302      	orrs	r2, r0
 8000ace:	08dc      	lsrs	r4, r3, #3
 8000ad0:	e6cc      	b.n	800086c <__aeabi_dadd+0x37c>
 8000ad2:	4663      	mov	r3, ip
 8000ad4:	1a1d      	subs	r5, r3, r0
 8000ad6:	45ac      	cmp	ip, r5
 8000ad8:	4192      	sbcs	r2, r2
 8000ada:	4653      	mov	r3, sl
 8000adc:	4252      	negs	r2, r2
 8000ade:	1b1c      	subs	r4, r3, r4
 8000ae0:	000e      	movs	r6, r1
 8000ae2:	4688      	mov	r8, r1
 8000ae4:	1aa4      	subs	r4, r4, r2
 8000ae6:	3701      	adds	r7, #1
 8000ae8:	e555      	b.n	8000596 <__aeabi_dadd+0xa6>
 8000aea:	4663      	mov	r3, ip
 8000aec:	08d9      	lsrs	r1, r3, #3
 8000aee:	4653      	mov	r3, sl
 8000af0:	075a      	lsls	r2, r3, #29
 8000af2:	430a      	orrs	r2, r1
 8000af4:	08dc      	lsrs	r4, r3, #3
 8000af6:	e6c9      	b.n	800088c <__aeabi_dadd+0x39c>
 8000af8:	4660      	mov	r0, ip
 8000afa:	4654      	mov	r4, sl
 8000afc:	e6d4      	b.n	80008a8 <__aeabi_dadd+0x3b8>
 8000afe:	08c0      	lsrs	r0, r0, #3
 8000b00:	2a00      	cmp	r2, #0
 8000b02:	d100      	bne.n	8000b06 <__aeabi_dadd+0x616>
 8000b04:	e6bf      	b.n	8000886 <__aeabi_dadd+0x396>
 8000b06:	0762      	lsls	r2, r4, #29
 8000b08:	4310      	orrs	r0, r2
 8000b0a:	2280      	movs	r2, #128	@ 0x80
 8000b0c:	08e4      	lsrs	r4, r4, #3
 8000b0e:	0312      	lsls	r2, r2, #12
 8000b10:	4214      	tst	r4, r2
 8000b12:	d0cd      	beq.n	8000ab0 <__aeabi_dadd+0x5c0>
 8000b14:	08dd      	lsrs	r5, r3, #3
 8000b16:	4215      	tst	r5, r2
 8000b18:	d1ca      	bne.n	8000ab0 <__aeabi_dadd+0x5c0>
 8000b1a:	4663      	mov	r3, ip
 8000b1c:	08d8      	lsrs	r0, r3, #3
 8000b1e:	4653      	mov	r3, sl
 8000b20:	075b      	lsls	r3, r3, #29
 8000b22:	000e      	movs	r6, r1
 8000b24:	002c      	movs	r4, r5
 8000b26:	4318      	orrs	r0, r3
 8000b28:	e7c2      	b.n	8000ab0 <__aeabi_dadd+0x5c0>
 8000b2a:	4663      	mov	r3, ip
 8000b2c:	08d9      	lsrs	r1, r3, #3
 8000b2e:	4653      	mov	r3, sl
 8000b30:	075a      	lsls	r2, r3, #29
 8000b32:	430a      	orrs	r2, r1
 8000b34:	08dc      	lsrs	r4, r3, #3
 8000b36:	e699      	b.n	800086c <__aeabi_dadd+0x37c>
 8000b38:	4663      	mov	r3, ip
 8000b3a:	08d8      	lsrs	r0, r3, #3
 8000b3c:	4653      	mov	r3, sl
 8000b3e:	075a      	lsls	r2, r3, #29
 8000b40:	000e      	movs	r6, r1
 8000b42:	4302      	orrs	r2, r0
 8000b44:	08dc      	lsrs	r4, r3, #3
 8000b46:	e6a1      	b.n	800088c <__aeabi_dadd+0x39c>
 8000b48:	0011      	movs	r1, r2
 8000b4a:	0027      	movs	r7, r4
 8000b4c:	3920      	subs	r1, #32
 8000b4e:	40cf      	lsrs	r7, r1
 8000b50:	2a20      	cmp	r2, #32
 8000b52:	d003      	beq.n	8000b5c <__aeabi_dadd+0x66c>
 8000b54:	2140      	movs	r1, #64	@ 0x40
 8000b56:	1a8a      	subs	r2, r1, r2
 8000b58:	4094      	lsls	r4, r2
 8000b5a:	4320      	orrs	r0, r4
 8000b5c:	1e42      	subs	r2, r0, #1
 8000b5e:	4190      	sbcs	r0, r2
 8000b60:	0005      	movs	r5, r0
 8000b62:	433d      	orrs	r5, r7
 8000b64:	e651      	b.n	800080a <__aeabi_dadd+0x31a>
 8000b66:	000c      	movs	r4, r1
 8000b68:	2500      	movs	r5, #0
 8000b6a:	2200      	movs	r2, #0
 8000b6c:	e558      	b.n	8000620 <__aeabi_dadd+0x130>
 8000b6e:	4460      	add	r0, ip
 8000b70:	4560      	cmp	r0, ip
 8000b72:	4192      	sbcs	r2, r2
 8000b74:	4454      	add	r4, sl
 8000b76:	4252      	negs	r2, r2
 8000b78:	0005      	movs	r5, r0
 8000b7a:	18a4      	adds	r4, r4, r2
 8000b7c:	e73a      	b.n	80009f4 <__aeabi_dadd+0x504>
 8000b7e:	4653      	mov	r3, sl
 8000b80:	075a      	lsls	r2, r3, #29
 8000b82:	4663      	mov	r3, ip
 8000b84:	08d9      	lsrs	r1, r3, #3
 8000b86:	4653      	mov	r3, sl
 8000b88:	430a      	orrs	r2, r1
 8000b8a:	08dc      	lsrs	r4, r3, #3
 8000b8c:	e67e      	b.n	800088c <__aeabi_dadd+0x39c>
 8000b8e:	001a      	movs	r2, r3
 8000b90:	001c      	movs	r4, r3
 8000b92:	432a      	orrs	r2, r5
 8000b94:	d000      	beq.n	8000b98 <__aeabi_dadd+0x6a8>
 8000b96:	e6ab      	b.n	80008f0 <__aeabi_dadd+0x400>
 8000b98:	e6c1      	b.n	800091e <__aeabi_dadd+0x42e>
 8000b9a:	2120      	movs	r1, #32
 8000b9c:	2500      	movs	r5, #0
 8000b9e:	1a09      	subs	r1, r1, r0
 8000ba0:	e519      	b.n	80005d6 <__aeabi_dadd+0xe6>
 8000ba2:	2200      	movs	r2, #0
 8000ba4:	2500      	movs	r5, #0
 8000ba6:	4c01      	ldr	r4, [pc, #4]	@ (8000bac <__aeabi_dadd+0x6bc>)
 8000ba8:	e53a      	b.n	8000620 <__aeabi_dadd+0x130>
 8000baa:	46c0      	nop			@ (mov r8, r8)
 8000bac:	000007ff 	.word	0x000007ff
 8000bb0:	ff7fffff 	.word	0xff7fffff
 8000bb4:	000007fe 	.word	0x000007fe

08000bb8 <__aeabi_ddiv>:
 8000bb8:	b5f0      	push	{r4, r5, r6, r7, lr}
 8000bba:	46de      	mov	lr, fp
 8000bbc:	4645      	mov	r5, r8
 8000bbe:	4657      	mov	r7, sl
 8000bc0:	464e      	mov	r6, r9
 8000bc2:	b5e0      	push	{r5, r6, r7, lr}
 8000bc4:	b087      	sub	sp, #28
 8000bc6:	9200      	str	r2, [sp, #0]
 8000bc8:	9301      	str	r3, [sp, #4]
 8000bca:	030b      	lsls	r3, r1, #12
 8000bcc:	0b1b      	lsrs	r3, r3, #12
 8000bce:	469b      	mov	fp, r3
 8000bd0:	0fca      	lsrs	r2, r1, #31
 8000bd2:	004b      	lsls	r3, r1, #1
 8000bd4:	0004      	movs	r4, r0
 8000bd6:	4680      	mov	r8, r0
 8000bd8:	0d5b      	lsrs	r3, r3, #21
 8000bda:	9202      	str	r2, [sp, #8]
 8000bdc:	d100      	bne.n	8000be0 <__aeabi_ddiv+0x28>
 8000bde:	e16a      	b.n	8000eb6 <__aeabi_ddiv+0x2fe>
 8000be0:	4ad4      	ldr	r2, [pc, #848]	@ (8000f34 <__aeabi_ddiv+0x37c>)
 8000be2:	4293      	cmp	r3, r2
 8000be4:	d100      	bne.n	8000be8 <__aeabi_ddiv+0x30>
 8000be6:	e18c      	b.n	8000f02 <__aeabi_ddiv+0x34a>
 8000be8:	4659      	mov	r1, fp
 8000bea:	0f42      	lsrs	r2, r0, #29
 8000bec:	00c9      	lsls	r1, r1, #3
 8000bee:	430a      	orrs	r2, r1
 8000bf0:	2180      	movs	r1, #128	@ 0x80
 8000bf2:	0409      	lsls	r1, r1, #16
 8000bf4:	4311      	orrs	r1, r2
 8000bf6:	00c2      	lsls	r2, r0, #3
 8000bf8:	4690      	mov	r8, r2
 8000bfa:	4acf      	ldr	r2, [pc, #828]	@ (8000f38 <__aeabi_ddiv+0x380>)
 8000bfc:	4689      	mov	r9, r1
 8000bfe:	4692      	mov	sl, r2
 8000c00:	449a      	add	sl, r3
 8000c02:	2300      	movs	r3, #0
 8000c04:	2400      	movs	r4, #0
 8000c06:	9303      	str	r3, [sp, #12]
 8000c08:	9e00      	ldr	r6, [sp, #0]
 8000c0a:	9f01      	ldr	r7, [sp, #4]
 8000c0c:	033b      	lsls	r3, r7, #12
 8000c0e:	0b1b      	lsrs	r3, r3, #12
 8000c10:	469b      	mov	fp, r3
 8000c12:	007b      	lsls	r3, r7, #1
 8000c14:	0030      	movs	r0, r6
 8000c16:	0d5b      	lsrs	r3, r3, #21
 8000c18:	0ffd      	lsrs	r5, r7, #31
 8000c1a:	2b00      	cmp	r3, #0
 8000c1c:	d100      	bne.n	8000c20 <__aeabi_ddiv+0x68>
 8000c1e:	e128      	b.n	8000e72 <__aeabi_ddiv+0x2ba>
 8000c20:	4ac4      	ldr	r2, [pc, #784]	@ (8000f34 <__aeabi_ddiv+0x37c>)
 8000c22:	4293      	cmp	r3, r2
 8000c24:	d100      	bne.n	8000c28 <__aeabi_ddiv+0x70>
 8000c26:	e177      	b.n	8000f18 <__aeabi_ddiv+0x360>
 8000c28:	4659      	mov	r1, fp
 8000c2a:	0f72      	lsrs	r2, r6, #29
 8000c2c:	00c9      	lsls	r1, r1, #3
 8000c2e:	430a      	orrs	r2, r1
 8000c30:	2180      	movs	r1, #128	@ 0x80
 8000c32:	0409      	lsls	r1, r1, #16
 8000c34:	4311      	orrs	r1, r2
 8000c36:	468b      	mov	fp, r1
 8000c38:	49bf      	ldr	r1, [pc, #764]	@ (8000f38 <__aeabi_ddiv+0x380>)
 8000c3a:	00f2      	lsls	r2, r6, #3
 8000c3c:	468c      	mov	ip, r1
 8000c3e:	4651      	mov	r1, sl
 8000c40:	4463      	add	r3, ip
 8000c42:	1acb      	subs	r3, r1, r3
 8000c44:	469a      	mov	sl, r3
 8000c46:	2300      	movs	r3, #0
 8000c48:	9e02      	ldr	r6, [sp, #8]
 8000c4a:	406e      	eors	r6, r5
 8000c4c:	2c0f      	cmp	r4, #15
 8000c4e:	d827      	bhi.n	8000ca0 <__aeabi_ddiv+0xe8>
 8000c50:	49ba      	ldr	r1, [pc, #744]	@ (8000f3c <__aeabi_ddiv+0x384>)
 8000c52:	00a4      	lsls	r4, r4, #2
 8000c54:	5909      	ldr	r1, [r1, r4]
 8000c56:	468f      	mov	pc, r1
 8000c58:	46cb      	mov	fp, r9
 8000c5a:	4642      	mov	r2, r8
 8000c5c:	9e02      	ldr	r6, [sp, #8]
 8000c5e:	9b03      	ldr	r3, [sp, #12]
 8000c60:	2b02      	cmp	r3, #2
 8000c62:	d016      	beq.n	8000c92 <__aeabi_ddiv+0xda>
 8000c64:	2b03      	cmp	r3, #3
 8000c66:	d100      	bne.n	8000c6a <__aeabi_ddiv+0xb2>
 8000c68:	e2a6      	b.n	80011b8 <__aeabi_ddiv+0x600>
 8000c6a:	2b01      	cmp	r3, #1
 8000c6c:	d000      	beq.n	8000c70 <__aeabi_ddiv+0xb8>
 8000c6e:	e0df      	b.n	8000e30 <__aeabi_ddiv+0x278>
 8000c70:	2200      	movs	r2, #0
 8000c72:	2300      	movs	r3, #0
 8000c74:	2400      	movs	r4, #0
 8000c76:	4690      	mov	r8, r2
 8000c78:	051b      	lsls	r3, r3, #20
 8000c7a:	4323      	orrs	r3, r4
 8000c7c:	07f6      	lsls	r6, r6, #31
 8000c7e:	4333      	orrs	r3, r6
 8000c80:	4640      	mov	r0, r8
 8000c82:	0019      	movs	r1, r3
 8000c84:	b007      	add	sp, #28
 8000c86:	bcf0      	pop	{r4, r5, r6, r7}
 8000c88:	46bb      	mov	fp, r7
 8000c8a:	46b2      	mov	sl, r6
 8000c8c:	46a9      	mov	r9, r5
 8000c8e:	46a0      	mov	r8, r4
 8000c90:	bdf0      	pop	{r4, r5, r6, r7, pc}
 8000c92:	2200      	movs	r2, #0
 8000c94:	2400      	movs	r4, #0
 8000c96:	4690      	mov	r8, r2
 8000c98:	4ba6      	ldr	r3, [pc, #664]	@ (8000f34 <__aeabi_ddiv+0x37c>)
 8000c9a:	e7ed      	b.n	8000c78 <__aeabi_ddiv+0xc0>
 8000c9c:	002e      	movs	r6, r5
 8000c9e:	e7df      	b.n	8000c60 <__aeabi_ddiv+0xa8>
 8000ca0:	45cb      	cmp	fp, r9
 8000ca2:	d200      	bcs.n	8000ca6 <__aeabi_ddiv+0xee>
 8000ca4:	e1d4      	b.n	8001050 <__aeabi_ddiv+0x498>
 8000ca6:	d100      	bne.n	8000caa <__aeabi_ddiv+0xf2>
 8000ca8:	e1cf      	b.n	800104a <__aeabi_ddiv+0x492>
 8000caa:	2301      	movs	r3, #1
 8000cac:	425b      	negs	r3, r3
 8000cae:	469c      	mov	ip, r3
 8000cb0:	4644      	mov	r4, r8
 8000cb2:	4648      	mov	r0, r9
 8000cb4:	2700      	movs	r7, #0
 8000cb6:	44e2      	add	sl, ip
 8000cb8:	465b      	mov	r3, fp
 8000cba:	0e15      	lsrs	r5, r2, #24
 8000cbc:	021b      	lsls	r3, r3, #8
 8000cbe:	431d      	orrs	r5, r3
 8000cc0:	0c19      	lsrs	r1, r3, #16
 8000cc2:	042b      	lsls	r3, r5, #16
 8000cc4:	0212      	lsls	r2, r2, #8
 8000cc6:	9500      	str	r5, [sp, #0]
 8000cc8:	0c1d      	lsrs	r5, r3, #16
 8000cca:	4691      	mov	r9, r2
 8000ccc:	9102      	str	r1, [sp, #8]
 8000cce:	9503      	str	r5, [sp, #12]
 8000cd0:	f7ff fab2 	bl	8000238 <__aeabi_uidivmod>
 8000cd4:	0002      	movs	r2, r0
 8000cd6:	436a      	muls	r2, r5
 8000cd8:	040b      	lsls	r3, r1, #16
 8000cda:	0c21      	lsrs	r1, r4, #16
 8000cdc:	4680      	mov	r8, r0
 8000cde:	4319      	orrs	r1, r3
 8000ce0:	428a      	cmp	r2, r1
 8000ce2:	d909      	bls.n	8000cf8 <__aeabi_ddiv+0x140>
 8000ce4:	9d00      	ldr	r5, [sp, #0]
 8000ce6:	2301      	movs	r3, #1
 8000ce8:	46ac      	mov	ip, r5
 8000cea:	425b      	negs	r3, r3
 8000cec:	4461      	add	r1, ip
 8000cee:	469c      	mov	ip, r3
 8000cf0:	44e0      	add	r8, ip
 8000cf2:	428d      	cmp	r5, r1
 8000cf4:	d800      	bhi.n	8000cf8 <__aeabi_ddiv+0x140>
 8000cf6:	e1fb      	b.n	80010f0 <__aeabi_ddiv+0x538>
 8000cf8:	1a88      	subs	r0, r1, r2
 8000cfa:	9902      	ldr	r1, [sp, #8]
 8000cfc:	f7ff fa9c 	bl	8000238 <__aeabi_uidivmod>
 8000d00:	9a03      	ldr	r2, [sp, #12]
 8000d02:	0424      	lsls	r4, r4, #16
 8000d04:	4342      	muls	r2, r0
 8000d06:	0409      	lsls	r1, r1, #16
 8000d08:	0c24      	lsrs	r4, r4, #16
 8000d0a:	0003      	movs	r3, r0
 8000d0c:	430c      	orrs	r4, r1
 8000d0e:	42a2      	cmp	r2, r4
 8000d10:	d906      	bls.n	8000d20 <__aeabi_ddiv+0x168>
 8000d12:	9900      	ldr	r1, [sp, #0]
 8000d14:	3b01      	subs	r3, #1
 8000d16:	468c      	mov	ip, r1
 8000d18:	4464      	add	r4, ip
 8000d1a:	42a1      	cmp	r1, r4
 8000d1c:	d800      	bhi.n	8000d20 <__aeabi_ddiv+0x168>
 8000d1e:	e1e1      	b.n	80010e4 <__aeabi_ddiv+0x52c>
 8000d20:	1aa0      	subs	r0, r4, r2
 8000d22:	4642      	mov	r2, r8
 8000d24:	0412      	lsls	r2, r2, #16
 8000d26:	431a      	orrs	r2, r3
 8000d28:	4693      	mov	fp, r2
 8000d2a:	464b      	mov	r3, r9
 8000d2c:	4659      	mov	r1, fp
 8000d2e:	0c1b      	lsrs	r3, r3, #16
 8000d30:	001d      	movs	r5, r3
 8000d32:	9304      	str	r3, [sp, #16]
 8000d34:	040b      	lsls	r3, r1, #16
 8000d36:	4649      	mov	r1, r9
 8000d38:	0409      	lsls	r1, r1, #16
 8000d3a:	0c09      	lsrs	r1, r1, #16
 8000d3c:	000c      	movs	r4, r1
 8000d3e:	0c1b      	lsrs	r3, r3, #16
 8000d40:	435c      	muls	r4, r3
 8000d42:	0c12      	lsrs	r2, r2, #16
 8000d44:	436b      	muls	r3, r5
 8000d46:	4688      	mov	r8, r1
 8000d48:	4351      	muls	r1, r2
 8000d4a:	436a      	muls	r2, r5
 8000d4c:	0c25      	lsrs	r5, r4, #16
 8000d4e:	46ac      	mov	ip, r5
 8000d50:	185b      	adds	r3, r3, r1
 8000d52:	4463      	add	r3, ip
 8000d54:	4299      	cmp	r1, r3
 8000d56:	d903      	bls.n	8000d60 <__aeabi_ddiv+0x1a8>
 8000d58:	2180      	movs	r1, #128	@ 0x80
 8000d5a:	0249      	lsls	r1, r1, #9
 8000d5c:	468c      	mov	ip, r1
 8000d5e:	4462      	add	r2, ip
 8000d60:	0c19      	lsrs	r1, r3, #16
 8000d62:	0424      	lsls	r4, r4, #16
 8000d64:	041b      	lsls	r3, r3, #16
 8000d66:	0c24      	lsrs	r4, r4, #16
 8000d68:	188a      	adds	r2, r1, r2
 8000d6a:	191c      	adds	r4, r3, r4
 8000d6c:	4290      	cmp	r0, r2
 8000d6e:	d302      	bcc.n	8000d76 <__aeabi_ddiv+0x1be>
 8000d70:	d116      	bne.n	8000da0 <__aeabi_ddiv+0x1e8>
 8000d72:	42a7      	cmp	r7, r4
 8000d74:	d214      	bcs.n	8000da0 <__aeabi_ddiv+0x1e8>
 8000d76:	465b      	mov	r3, fp
 8000d78:	9d00      	ldr	r5, [sp, #0]
 8000d7a:	3b01      	subs	r3, #1
 8000d7c:	444f      	add	r7, r9
 8000d7e:	9305      	str	r3, [sp, #20]
 8000d80:	454f      	cmp	r7, r9
 8000d82:	419b      	sbcs	r3, r3
 8000d84:	46ac      	mov	ip, r5
 8000d86:	425b      	negs	r3, r3
 8000d88:	4463      	add	r3, ip
 8000d8a:	18c0      	adds	r0, r0, r3
 8000d8c:	4285      	cmp	r5, r0
 8000d8e:	d300      	bcc.n	8000d92 <__aeabi_ddiv+0x1da>
 8000d90:	e1a1      	b.n	80010d6 <__aeabi_ddiv+0x51e>
 8000d92:	4282      	cmp	r2, r0
 8000d94:	d900      	bls.n	8000d98 <__aeabi_ddiv+0x1e0>
 8000d96:	e1f6      	b.n	8001186 <__aeabi_ddiv+0x5ce>
 8000d98:	d100      	bne.n	8000d9c <__aeabi_ddiv+0x1e4>
 8000d9a:	e1f1      	b.n	8001180 <__aeabi_ddiv+0x5c8>
 8000d9c:	9b05      	ldr	r3, [sp, #20]
 8000d9e:	469b      	mov	fp, r3
 8000da0:	1b3c      	subs	r4, r7, r4
 8000da2:	42a7      	cmp	r7, r4
 8000da4:	41bf      	sbcs	r7, r7
 8000da6:	9d00      	ldr	r5, [sp, #0]
 8000da8:	1a80      	subs	r0, r0, r2
 8000daa:	427f      	negs	r7, r7
 8000dac:	1bc0      	subs	r0, r0, r7
 8000dae:	4285      	cmp	r5, r0
 8000db0:	d100      	bne.n	8000db4 <__aeabi_ddiv+0x1fc>
 8000db2:	e1d0      	b.n	8001156 <__aeabi_ddiv+0x59e>
 8000db4:	9902      	ldr	r1, [sp, #8]
 8000db6:	f7ff fa3f 	bl	8000238 <__aeabi_uidivmod>
 8000dba:	9a03      	ldr	r2, [sp, #12]
 8000dbc:	040b      	lsls	r3, r1, #16
 8000dbe:	4342      	muls	r2, r0
 8000dc0:	0c21      	lsrs	r1, r4, #16
 8000dc2:	0007      	movs	r7, r0
 8000dc4:	4319      	orrs	r1, r3
 8000dc6:	428a      	cmp	r2, r1
 8000dc8:	d900      	bls.n	8000dcc <__aeabi_ddiv+0x214>
 8000dca:	e178      	b.n	80010be <__aeabi_ddiv+0x506>
 8000dcc:	1a88      	subs	r0, r1, r2
 8000dce:	9902      	ldr	r1, [sp, #8]
 8000dd0:	f7ff fa32 	bl	8000238 <__aeabi_uidivmod>
 8000dd4:	9a03      	ldr	r2, [sp, #12]
 8000dd6:	0424      	lsls	r4, r4, #16
 8000dd8:	4342      	muls	r2, r0
 8000dda:	0409      	lsls	r1, r1, #16
 8000ddc:	0c24      	lsrs	r4, r4, #16
 8000dde:	0003      	movs	r3, r0
 8000de0:	430c      	orrs	r4, r1
 8000de2:	42a2      	cmp	r2, r4
 8000de4:	d900      	bls.n	8000de8 <__aeabi_ddiv+0x230>
 8000de6:	e15d      	b.n	80010a4 <__aeabi_ddiv+0x4ec>
 8000de8:	4641      	mov	r1, r8
 8000dea:	1aa4      	subs	r4, r4, r2
 8000dec:	043a      	lsls	r2, r7, #16
 8000dee:	431a      	orrs	r2, r3
 8000df0:	9d04      	ldr	r5, [sp, #16]
 8000df2:	0413      	lsls	r3, r2, #16
 8000df4:	0c1b      	lsrs	r3, r3, #16
 8000df6:	4359      	muls	r1, r3
 8000df8:	4647      	mov	r7, r8
 8000dfa:	436b      	muls	r3, r5
 8000dfc:	469c      	mov	ip, r3
 8000dfe:	0c10      	lsrs	r0, r2, #16
 8000e00:	4347      	muls	r7, r0
 8000e02:	0c0b      	lsrs	r3, r1, #16
 8000e04:	44bc      	add	ip, r7
 8000e06:	4463      	add	r3, ip
 8000e08:	4368      	muls	r0, r5
 8000e0a:	429f      	cmp	r7, r3
 8000e0c:	d903      	bls.n	8000e16 <__aeabi_ddiv+0x25e>
 8000e0e:	2580      	movs	r5, #128	@ 0x80
 8000e10:	026d      	lsls	r5, r5, #9
 8000e12:	46ac      	mov	ip, r5
 8000e14:	4460      	add	r0, ip
 8000e16:	0c1f      	lsrs	r7, r3, #16
 8000e18:	0409      	lsls	r1, r1, #16
 8000e1a:	041b      	lsls	r3, r3, #16
 8000e1c:	0c09      	lsrs	r1, r1, #16
 8000e1e:	183f      	adds	r7, r7, r0
 8000e20:	185b      	adds	r3, r3, r1
 8000e22:	42bc      	cmp	r4, r7
 8000e24:	d200      	bcs.n	8000e28 <__aeabi_ddiv+0x270>
 8000e26:	e102      	b.n	800102e <__aeabi_ddiv+0x476>
 8000e28:	d100      	bne.n	8000e2c <__aeabi_ddiv+0x274>
 8000e2a:	e0fd      	b.n	8001028 <__aeabi_ddiv+0x470>
 8000e2c:	2301      	movs	r3, #1
 8000e2e:	431a      	orrs	r2, r3
 8000e30:	4b43      	ldr	r3, [pc, #268]	@ (8000f40 <__aeabi_ddiv+0x388>)
 8000e32:	4453      	add	r3, sl
 8000e34:	2b00      	cmp	r3, #0
 8000e36:	dc00      	bgt.n	8000e3a <__aeabi_ddiv+0x282>
 8000e38:	e0ae      	b.n	8000f98 <__aeabi_ddiv+0x3e0>
 8000e3a:	0751      	lsls	r1, r2, #29
 8000e3c:	d000      	beq.n	8000e40 <__aeabi_ddiv+0x288>
 8000e3e:	e198      	b.n	8001172 <__aeabi_ddiv+0x5ba>
 8000e40:	4659      	mov	r1, fp
 8000e42:	01c9      	lsls	r1, r1, #7
 8000e44:	d506      	bpl.n	8000e54 <__aeabi_ddiv+0x29c>
 8000e46:	4659      	mov	r1, fp
 8000e48:	4b3e      	ldr	r3, [pc, #248]	@ (8000f44 <__aeabi_ddiv+0x38c>)
 8000e4a:	4019      	ands	r1, r3
 8000e4c:	2380      	movs	r3, #128	@ 0x80
 8000e4e:	468b      	mov	fp, r1
 8000e50:	00db      	lsls	r3, r3, #3
 8000e52:	4453      	add	r3, sl
 8000e54:	493c      	ldr	r1, [pc, #240]	@ (8000f48 <__aeabi_ddiv+0x390>)
 8000e56:	428b      	cmp	r3, r1
 8000e58:	dd00      	ble.n	8000e5c <__aeabi_ddiv+0x2a4>
 8000e5a:	e71a      	b.n	8000c92 <__aeabi_ddiv+0xda>
 8000e5c:	4659      	mov	r1, fp
 8000e5e:	08d2      	lsrs	r2, r2, #3
 8000e60:	0749      	lsls	r1, r1, #29
 8000e62:	4311      	orrs	r1, r2
 8000e64:	465a      	mov	r2, fp
 8000e66:	055b      	lsls	r3, r3, #21
 8000e68:	0254      	lsls	r4, r2, #9
 8000e6a:	4688      	mov	r8, r1
 8000e6c:	0b24      	lsrs	r4, r4, #12
 8000e6e:	0d5b      	lsrs	r3, r3, #21
 8000e70:	e702      	b.n	8000c78 <__aeabi_ddiv+0xc0>
 8000e72:	465a      	mov	r2, fp
 8000e74:	9b00      	ldr	r3, [sp, #0]
 8000e76:	431a      	orrs	r2, r3
 8000e78:	d100      	bne.n	8000e7c <__aeabi_ddiv+0x2c4>
 8000e7a:	e07e      	b.n	8000f7a <__aeabi_ddiv+0x3c2>
 8000e7c:	465b      	mov	r3, fp
 8000e7e:	2b00      	cmp	r3, #0
 8000e80:	d100      	bne.n	8000e84 <__aeabi_ddiv+0x2cc>
 8000e82:	e100      	b.n	8001086 <__aeabi_ddiv+0x4ce>
 8000e84:	4658      	mov	r0, fp
 8000e86:	f000 fce3 	bl	8001850 <__clzsi2>
 8000e8a:	0002      	movs	r2, r0
 8000e8c:	0003      	movs	r3, r0
 8000e8e:	3a0b      	subs	r2, #11
 8000e90:	271d      	movs	r7, #29
 8000e92:	9e00      	ldr	r6, [sp, #0]
 8000e94:	1aba      	subs	r2, r7, r2
 8000e96:	0019      	movs	r1, r3
 8000e98:	4658      	mov	r0, fp
 8000e9a:	40d6      	lsrs	r6, r2
 8000e9c:	3908      	subs	r1, #8
 8000e9e:	4088      	lsls	r0, r1
 8000ea0:	0032      	movs	r2, r6
 8000ea2:	4302      	orrs	r2, r0
 8000ea4:	4693      	mov	fp, r2
 8000ea6:	9a00      	ldr	r2, [sp, #0]
 8000ea8:	408a      	lsls	r2, r1
 8000eaa:	4928      	ldr	r1, [pc, #160]	@ (8000f4c <__aeabi_ddiv+0x394>)
 8000eac:	4453      	add	r3, sl
 8000eae:	468a      	mov	sl, r1
 8000eb0:	449a      	add	sl, r3
 8000eb2:	2300      	movs	r3, #0
 8000eb4:	e6c8      	b.n	8000c48 <__aeabi_ddiv+0x90>
 8000eb6:	465b      	mov	r3, fp
 8000eb8:	4303      	orrs	r3, r0
 8000eba:	4699      	mov	r9, r3
 8000ebc:	d056      	beq.n	8000f6c <__aeabi_ddiv+0x3b4>
 8000ebe:	465b      	mov	r3, fp
 8000ec0:	2b00      	cmp	r3, #0
 8000ec2:	d100      	bne.n	8000ec6 <__aeabi_ddiv+0x30e>
 8000ec4:	e0cd      	b.n	8001062 <__aeabi_ddiv+0x4aa>
 8000ec6:	4658      	mov	r0, fp
 8000ec8:	f000 fcc2 	bl	8001850 <__clzsi2>
 8000ecc:	230b      	movs	r3, #11
 8000ece:	425b      	negs	r3, r3
 8000ed0:	469c      	mov	ip, r3
 8000ed2:	0002      	movs	r2, r0
 8000ed4:	4484      	add	ip, r0
 8000ed6:	4666      	mov	r6, ip
 8000ed8:	231d      	movs	r3, #29
 8000eda:	1b9b      	subs	r3, r3, r6
 8000edc:	0026      	movs	r6, r4
 8000ede:	0011      	movs	r1, r2
 8000ee0:	4658      	mov	r0, fp
 8000ee2:	40de      	lsrs	r6, r3
 8000ee4:	3908      	subs	r1, #8
 8000ee6:	4088      	lsls	r0, r1
 8000ee8:	0033      	movs	r3, r6
 8000eea:	4303      	orrs	r3, r0
 8000eec:	4699      	mov	r9, r3
 8000eee:	0023      	movs	r3, r4
 8000ef0:	408b      	lsls	r3, r1
 8000ef2:	4698      	mov	r8, r3
 8000ef4:	4b16      	ldr	r3, [pc, #88]	@ (8000f50 <__aeabi_ddiv+0x398>)
 8000ef6:	2400      	movs	r4, #0
 8000ef8:	1a9b      	subs	r3, r3, r2
 8000efa:	469a      	mov	sl, r3
 8000efc:	2300      	movs	r3, #0
 8000efe:	9303      	str	r3, [sp, #12]
 8000f00:	e682      	b.n	8000c08 <__aeabi_ddiv+0x50>
 8000f02:	465a      	mov	r2, fp
 8000f04:	4302      	orrs	r2, r0
 8000f06:	4691      	mov	r9, r2
 8000f08:	d12a      	bne.n	8000f60 <__aeabi_ddiv+0x3a8>
 8000f0a:	2200      	movs	r2, #0
 8000f0c:	469a      	mov	sl, r3
 8000f0e:	2302      	movs	r3, #2
 8000f10:	4690      	mov	r8, r2
 8000f12:	2408      	movs	r4, #8
 8000f14:	9303      	str	r3, [sp, #12]
 8000f16:	e677      	b.n	8000c08 <__aeabi_ddiv+0x50>
 8000f18:	465a      	mov	r2, fp
 8000f1a:	9b00      	ldr	r3, [sp, #0]
 8000f1c:	431a      	orrs	r2, r3
 8000f1e:	4b0d      	ldr	r3, [pc, #52]	@ (8000f54 <__aeabi_ddiv+0x39c>)
 8000f20:	469c      	mov	ip, r3
 8000f22:	44e2      	add	sl, ip
 8000f24:	2a00      	cmp	r2, #0
 8000f26:	d117      	bne.n	8000f58 <__aeabi_ddiv+0x3a0>
 8000f28:	2302      	movs	r3, #2
 8000f2a:	431c      	orrs	r4, r3
 8000f2c:	2300      	movs	r3, #0
 8000f2e:	469b      	mov	fp, r3
 8000f30:	3302      	adds	r3, #2
 8000f32:	e689      	b.n	8000c48 <__aeabi_ddiv+0x90>
 8000f34:	000007ff 	.word	0x000007ff
 8000f38:	fffffc01 	.word	0xfffffc01
 8000f3c:	08003840 	.word	0x08003840
 8000f40:	000003ff 	.word	0x000003ff
 8000f44:	feffffff 	.word	0xfeffffff
 8000f48:	000007fe 	.word	0x000007fe
 8000f4c:	000003f3 	.word	0x000003f3
 8000f50:	fffffc0d 	.word	0xfffffc0d
 8000f54:	fffff801 	.word	0xfffff801
 8000f58:	2303      	movs	r3, #3
 8000f5a:	0032      	movs	r2, r6
 8000f5c:	431c      	orrs	r4, r3
 8000f5e:	e673      	b.n	8000c48 <__aeabi_ddiv+0x90>
 8000f60:	469a      	mov	sl, r3
 8000f62:	2303      	movs	r3, #3
 8000f64:	46d9      	mov	r9, fp
 8000f66:	240c      	movs	r4, #12
 8000f68:	9303      	str	r3, [sp, #12]
 8000f6a:	e64d      	b.n	8000c08 <__aeabi_ddiv+0x50>
 8000f6c:	2300      	movs	r3, #0
 8000f6e:	4698      	mov	r8, r3
 8000f70:	469a      	mov	sl, r3
 8000f72:	3301      	adds	r3, #1
 8000f74:	2404      	movs	r4, #4
 8000f76:	9303      	str	r3, [sp, #12]
 8000f78:	e646      	b.n	8000c08 <__aeabi_ddiv+0x50>
 8000f7a:	2301      	movs	r3, #1
 8000f7c:	431c      	orrs	r4, r3
 8000f7e:	2300      	movs	r3, #0
 8000f80:	469b      	mov	fp, r3
 8000f82:	3301      	adds	r3, #1
 8000f84:	e660      	b.n	8000c48 <__aeabi_ddiv+0x90>
 8000f86:	2300      	movs	r3, #0
 8000f88:	2480      	movs	r4, #128	@ 0x80
 8000f8a:	4698      	mov	r8, r3
 8000f8c:	2600      	movs	r6, #0
 8000f8e:	4b92      	ldr	r3, [pc, #584]	@ (80011d8 <__aeabi_ddiv+0x620>)
 8000f90:	0324      	lsls	r4, r4, #12
 8000f92:	e671      	b.n	8000c78 <__aeabi_ddiv+0xc0>
 8000f94:	2201      	movs	r2, #1
 8000f96:	4252      	negs	r2, r2
 8000f98:	2101      	movs	r1, #1
 8000f9a:	1ac9      	subs	r1, r1, r3
 8000f9c:	2938      	cmp	r1, #56	@ 0x38
 8000f9e:	dd00      	ble.n	8000fa2 <__aeabi_ddiv+0x3ea>
 8000fa0:	e666      	b.n	8000c70 <__aeabi_ddiv+0xb8>
 8000fa2:	291f      	cmp	r1, #31
 8000fa4:	dc00      	bgt.n	8000fa8 <__aeabi_ddiv+0x3f0>
 8000fa6:	e0ab      	b.n	8001100 <__aeabi_ddiv+0x548>
 8000fa8:	201f      	movs	r0, #31
 8000faa:	4240      	negs	r0, r0
 8000fac:	1ac3      	subs	r3, r0, r3
 8000fae:	4658      	mov	r0, fp
 8000fb0:	40d8      	lsrs	r0, r3
 8000fb2:	0003      	movs	r3, r0
 8000fb4:	2920      	cmp	r1, #32
 8000fb6:	d004      	beq.n	8000fc2 <__aeabi_ddiv+0x40a>
 8000fb8:	4658      	mov	r0, fp
 8000fba:	4988      	ldr	r1, [pc, #544]	@ (80011dc <__aeabi_ddiv+0x624>)
 8000fbc:	4451      	add	r1, sl
 8000fbe:	4088      	lsls	r0, r1
 8000fc0:	4302      	orrs	r2, r0
 8000fc2:	1e51      	subs	r1, r2, #1
 8000fc4:	418a      	sbcs	r2, r1
 8000fc6:	431a      	orrs	r2, r3
 8000fc8:	2307      	movs	r3, #7
 8000fca:	0019      	movs	r1, r3
 8000fcc:	2400      	movs	r4, #0
 8000fce:	4011      	ands	r1, r2
 8000fd0:	4213      	tst	r3, r2
 8000fd2:	d00c      	beq.n	8000fee <__aeabi_ddiv+0x436>
 8000fd4:	230f      	movs	r3, #15
 8000fd6:	4013      	ands	r3, r2
 8000fd8:	2b04      	cmp	r3, #4
 8000fda:	d100      	bne.n	8000fde <__aeabi_ddiv+0x426>
 8000fdc:	e0f9      	b.n	80011d2 <__aeabi_ddiv+0x61a>
 8000fde:	1d11      	adds	r1, r2, #4
 8000fe0:	4291      	cmp	r1, r2
 8000fe2:	419b      	sbcs	r3, r3
 8000fe4:	000a      	movs	r2, r1
 8000fe6:	425b      	negs	r3, r3
 8000fe8:	0759      	lsls	r1, r3, #29
 8000fea:	025b      	lsls	r3, r3, #9
 8000fec:	0b1c      	lsrs	r4, r3, #12
 8000fee:	08d2      	lsrs	r2, r2, #3
 8000ff0:	430a      	orrs	r2, r1
 8000ff2:	4690      	mov	r8, r2
 8000ff4:	2300      	movs	r3, #0
 8000ff6:	e63f      	b.n	8000c78 <__aeabi_ddiv+0xc0>
 8000ff8:	2480      	movs	r4, #128	@ 0x80
 8000ffa:	464b      	mov	r3, r9
 8000ffc:	0324      	lsls	r4, r4, #12
 8000ffe:	4223      	tst	r3, r4
 8001000:	d009      	beq.n	8001016 <__aeabi_ddiv+0x45e>
 8001002:	465b      	mov	r3, fp
 8001004:	4223      	tst	r3, r4
 8001006:	d106      	bne.n	8001016 <__aeabi_ddiv+0x45e>
 8001008:	431c      	orrs	r4, r3
 800100a:	0324      	lsls	r4, r4, #12
 800100c:	002e      	movs	r6, r5
 800100e:	4690      	mov	r8, r2
 8001010:	4b71      	ldr	r3, [pc, #452]	@ (80011d8 <__aeabi_ddiv+0x620>)
 8001012:	0b24      	lsrs	r4, r4, #12
 8001014:	e630      	b.n	8000c78 <__aeabi_ddiv+0xc0>
 8001016:	2480      	movs	r4, #128	@ 0x80
 8001018:	464b      	mov	r3, r9
 800101a:	0324      	lsls	r4, r4, #12
 800101c:	431c      	orrs	r4, r3
 800101e:	0324      	lsls	r4, r4, #12
 8001020:	9e02      	ldr	r6, [sp, #8]
 8001022:	4b6d      	ldr	r3, [pc, #436]	@ (80011d8 <__aeabi_ddiv+0x620>)
 8001024:	0b24      	lsrs	r4, r4, #12
 8001026:	e627      	b.n	8000c78 <__aeabi_ddiv+0xc0>
 8001028:	2b00      	cmp	r3, #0
 800102a:	d100      	bne.n	800102e <__aeabi_ddiv+0x476>
 800102c:	e700      	b.n	8000e30 <__aeabi_ddiv+0x278>
 800102e:	9800      	ldr	r0, [sp, #0]
 8001030:	1e51      	subs	r1, r2, #1
 8001032:	4684      	mov	ip, r0
 8001034:	4464      	add	r4, ip
 8001036:	4284      	cmp	r4, r0
 8001038:	d200      	bcs.n	800103c <__aeabi_ddiv+0x484>
 800103a:	e084      	b.n	8001146 <__aeabi_ddiv+0x58e>
 800103c:	42bc      	cmp	r4, r7
 800103e:	d200      	bcs.n	8001042 <__aeabi_ddiv+0x48a>
 8001040:	e0ae      	b.n	80011a0 <__aeabi_ddiv+0x5e8>
 8001042:	d100      	bne.n	8001046 <__aeabi_ddiv+0x48e>
 8001044:	e0c1      	b.n	80011ca <__aeabi_ddiv+0x612>
 8001046:	000a      	movs	r2, r1
 8001048:	e6f0      	b.n	8000e2c <__aeabi_ddiv+0x274>
 800104a:	4542      	cmp	r2, r8
 800104c:	d900      	bls.n	8001050 <__aeabi_ddiv+0x498>
 800104e:	e62c      	b.n	8000caa <__aeabi_ddiv+0xf2>
 8001050:	464b      	mov	r3, r9
 8001052:	07dc      	lsls	r4, r3, #31
 8001054:	0858      	lsrs	r0, r3, #1
 8001056:	4643      	mov	r3, r8
 8001058:	085b      	lsrs	r3, r3, #1
 800105a:	431c      	orrs	r4, r3
 800105c:	4643      	mov	r3, r8
 800105e:	07df      	lsls	r7, r3, #31
 8001060:	e62a      	b.n	8000cb8 <__aeabi_ddiv+0x100>
 8001062:	f000 fbf5 	bl	8001850 <__clzsi2>
 8001066:	2315      	movs	r3, #21
 8001068:	469c      	mov	ip, r3
 800106a:	4484      	add	ip, r0
 800106c:	0002      	movs	r2, r0
 800106e:	4663      	mov	r3, ip
 8001070:	3220      	adds	r2, #32
 8001072:	2b1c      	cmp	r3, #28
 8001074:	dc00      	bgt.n	8001078 <__aeabi_ddiv+0x4c0>
 8001076:	e72e      	b.n	8000ed6 <__aeabi_ddiv+0x31e>
 8001078:	0023      	movs	r3, r4
 800107a:	3808      	subs	r0, #8
 800107c:	4083      	lsls	r3, r0
 800107e:	4699      	mov	r9, r3
 8001080:	2300      	movs	r3, #0
 8001082:	4698      	mov	r8, r3
 8001084:	e736      	b.n	8000ef4 <__aeabi_ddiv+0x33c>
 8001086:	f000 fbe3 	bl	8001850 <__clzsi2>
 800108a:	0002      	movs	r2, r0
 800108c:	0003      	movs	r3, r0
 800108e:	3215      	adds	r2, #21
 8001090:	3320      	adds	r3, #32
 8001092:	2a1c      	cmp	r2, #28
 8001094:	dc00      	bgt.n	8001098 <__aeabi_ddiv+0x4e0>
 8001096:	e6fb      	b.n	8000e90 <__aeabi_ddiv+0x2d8>
 8001098:	9900      	ldr	r1, [sp, #0]
 800109a:	3808      	subs	r0, #8
 800109c:	4081      	lsls	r1, r0
 800109e:	2200      	movs	r2, #0
 80010a0:	468b      	mov	fp, r1
 80010a2:	e702      	b.n	8000eaa <__aeabi_ddiv+0x2f2>
 80010a4:	9900      	ldr	r1, [sp, #0]
 80010a6:	3b01      	subs	r3, #1
 80010a8:	468c      	mov	ip, r1
 80010aa:	4464      	add	r4, ip
 80010ac:	42a1      	cmp	r1, r4
 80010ae:	d900      	bls.n	80010b2 <__aeabi_ddiv+0x4fa>
 80010b0:	e69a      	b.n	8000de8 <__aeabi_ddiv+0x230>
 80010b2:	42a2      	cmp	r2, r4
 80010b4:	d800      	bhi.n	80010b8 <__aeabi_ddiv+0x500>
 80010b6:	e697      	b.n	8000de8 <__aeabi_ddiv+0x230>
 80010b8:	1e83      	subs	r3, r0, #2
 80010ba:	4464      	add	r4, ip
 80010bc:	e694      	b.n	8000de8 <__aeabi_ddiv+0x230>
 80010be:	46ac      	mov	ip, r5
 80010c0:	4461      	add	r1, ip
 80010c2:	3f01      	subs	r7, #1
 80010c4:	428d      	cmp	r5, r1
 80010c6:	d900      	bls.n	80010ca <__aeabi_ddiv+0x512>
 80010c8:	e680      	b.n	8000dcc <__aeabi_ddiv+0x214>
 80010ca:	428a      	cmp	r2, r1
 80010cc:	d800      	bhi.n	80010d0 <__aeabi_ddiv+0x518>
 80010ce:	e67d      	b.n	8000dcc <__aeabi_ddiv+0x214>
 80010d0:	1e87      	subs	r7, r0, #2
 80010d2:	4461      	add	r1, ip
 80010d4:	e67a      	b.n	8000dcc <__aeabi_ddiv+0x214>
 80010d6:	4285      	cmp	r5, r0
 80010d8:	d000      	beq.n	80010dc <__aeabi_ddiv+0x524>
 80010da:	e65f      	b.n	8000d9c <__aeabi_ddiv+0x1e4>
 80010dc:	45b9      	cmp	r9, r7
 80010de:	d900      	bls.n	80010e2 <__aeabi_ddiv+0x52a>
 80010e0:	e65c      	b.n	8000d9c <__aeabi_ddiv+0x1e4>
 80010e2:	e656      	b.n	8000d92 <__aeabi_ddiv+0x1da>
 80010e4:	42a2      	cmp	r2, r4
 80010e6:	d800      	bhi.n	80010ea <__aeabi_ddiv+0x532>
 80010e8:	e61a      	b.n	8000d20 <__aeabi_ddiv+0x168>
 80010ea:	1e83      	subs	r3, r0, #2
 80010ec:	4464      	add	r4, ip
 80010ee:	e617      	b.n	8000d20 <__aeabi_ddiv+0x168>
 80010f0:	428a      	cmp	r2, r1
 80010f2:	d800      	bhi.n	80010f6 <__aeabi_ddiv+0x53e>
 80010f4:	e600      	b.n	8000cf8 <__aeabi_ddiv+0x140>
 80010f6:	46ac      	mov	ip, r5
 80010f8:	1e83      	subs	r3, r0, #2
 80010fa:	4698      	mov	r8, r3
 80010fc:	4461      	add	r1, ip
 80010fe:	e5fb      	b.n	8000cf8 <__aeabi_ddiv+0x140>
 8001100:	4837      	ldr	r0, [pc, #220]	@ (80011e0 <__aeabi_ddiv+0x628>)
 8001102:	0014      	movs	r4, r2
 8001104:	4450      	add	r0, sl
 8001106:	4082      	lsls	r2, r0
 8001108:	465b      	mov	r3, fp
 800110a:	0017      	movs	r7, r2
 800110c:	4083      	lsls	r3, r0
 800110e:	40cc      	lsrs	r4, r1
 8001110:	1e7a      	subs	r2, r7, #1
 8001112:	4197      	sbcs	r7, r2
 8001114:	4323      	orrs	r3, r4
 8001116:	433b      	orrs	r3, r7
 8001118:	001a      	movs	r2, r3
 800111a:	465b      	mov	r3, fp
 800111c:	40cb      	lsrs	r3, r1
 800111e:	0751      	lsls	r1, r2, #29
 8001120:	d009      	beq.n	8001136 <__aeabi_ddiv+0x57e>
 8001122:	210f      	movs	r1, #15
 8001124:	4011      	ands	r1, r2
 8001126:	2904      	cmp	r1, #4
 8001128:	d005      	beq.n	8001136 <__aeabi_ddiv+0x57e>
 800112a:	1d11      	adds	r1, r2, #4
 800112c:	4291      	cmp	r1, r2
 800112e:	4192      	sbcs	r2, r2
 8001130:	4252      	negs	r2, r2
 8001132:	189b      	adds	r3, r3, r2
 8001134:	000a      	movs	r2, r1
 8001136:	0219      	lsls	r1, r3, #8
 8001138:	d400      	bmi.n	800113c <__aeabi_ddiv+0x584>
 800113a:	e755      	b.n	8000fe8 <__aeabi_ddiv+0x430>
 800113c:	2200      	movs	r2, #0
 800113e:	2301      	movs	r3, #1
 8001140:	2400      	movs	r4, #0
 8001142:	4690      	mov	r8, r2
 8001144:	e598      	b.n	8000c78 <__aeabi_ddiv+0xc0>
 8001146:	000a      	movs	r2, r1
 8001148:	42bc      	cmp	r4, r7
 800114a:	d000      	beq.n	800114e <__aeabi_ddiv+0x596>
 800114c:	e66e      	b.n	8000e2c <__aeabi_ddiv+0x274>
 800114e:	454b      	cmp	r3, r9
 8001150:	d000      	beq.n	8001154 <__aeabi_ddiv+0x59c>
 8001152:	e66b      	b.n	8000e2c <__aeabi_ddiv+0x274>
 8001154:	e66c      	b.n	8000e30 <__aeabi_ddiv+0x278>
 8001156:	4b23      	ldr	r3, [pc, #140]	@ (80011e4 <__aeabi_ddiv+0x62c>)
 8001158:	4a23      	ldr	r2, [pc, #140]	@ (80011e8 <__aeabi_ddiv+0x630>)
 800115a:	4453      	add	r3, sl
 800115c:	4592      	cmp	sl, r2
 800115e:	da00      	bge.n	8001162 <__aeabi_ddiv+0x5aa>
 8001160:	e718      	b.n	8000f94 <__aeabi_ddiv+0x3dc>
 8001162:	2101      	movs	r1, #1
 8001164:	4249      	negs	r1, r1
 8001166:	1d0a      	adds	r2, r1, #4
 8001168:	428a      	cmp	r2, r1
 800116a:	4189      	sbcs	r1, r1
 800116c:	4249      	negs	r1, r1
 800116e:	448b      	add	fp, r1
 8001170:	e666      	b.n	8000e40 <__aeabi_ddiv+0x288>
 8001172:	210f      	movs	r1, #15
 8001174:	4011      	ands	r1, r2
 8001176:	2904      	cmp	r1, #4
 8001178:	d100      	bne.n	800117c <__aeabi_ddiv+0x5c4>
 800117a:	e661      	b.n	8000e40 <__aeabi_ddiv+0x288>
 800117c:	0011      	movs	r1, r2
 800117e:	e7f2      	b.n	8001166 <__aeabi_ddiv+0x5ae>
 8001180:	42bc      	cmp	r4, r7
 8001182:	d800      	bhi.n	8001186 <__aeabi_ddiv+0x5ce>
 8001184:	e60a      	b.n	8000d9c <__aeabi_ddiv+0x1e4>
 8001186:	2302      	movs	r3, #2
 8001188:	425b      	negs	r3, r3
 800118a:	469c      	mov	ip, r3
 800118c:	9900      	ldr	r1, [sp, #0]
 800118e:	444f      	add	r7, r9
 8001190:	454f      	cmp	r7, r9
 8001192:	419b      	sbcs	r3, r3
 8001194:	44e3      	add	fp, ip
 8001196:	468c      	mov	ip, r1
 8001198:	425b      	negs	r3, r3
 800119a:	4463      	add	r3, ip
 800119c:	18c0      	adds	r0, r0, r3
 800119e:	e5ff      	b.n	8000da0 <__aeabi_ddiv+0x1e8>
 80011a0:	4649      	mov	r1, r9
 80011a2:	9d00      	ldr	r5, [sp, #0]
 80011a4:	0048      	lsls	r0, r1, #1
 80011a6:	4548      	cmp	r0, r9
 80011a8:	4189      	sbcs	r1, r1
 80011aa:	46ac      	mov	ip, r5
 80011ac:	4249      	negs	r1, r1
 80011ae:	4461      	add	r1, ip
 80011b0:	4681      	mov	r9, r0
 80011b2:	3a02      	subs	r2, #2
 80011b4:	1864      	adds	r4, r4, r1
 80011b6:	e7c7      	b.n	8001148 <__aeabi_ddiv+0x590>
 80011b8:	2480      	movs	r4, #128	@ 0x80
 80011ba:	465b      	mov	r3, fp
 80011bc:	0324      	lsls	r4, r4, #12
 80011be:	431c      	orrs	r4, r3
 80011c0:	0324      	lsls	r4, r4, #12
 80011c2:	4690      	mov	r8, r2
 80011c4:	4b04      	ldr	r3, [pc, #16]	@ (80011d8 <__aeabi_ddiv+0x620>)
 80011c6:	0b24      	lsrs	r4, r4, #12
 80011c8:	e556      	b.n	8000c78 <__aeabi_ddiv+0xc0>
 80011ca:	4599      	cmp	r9, r3
 80011cc:	d3e8      	bcc.n	80011a0 <__aeabi_ddiv+0x5e8>
 80011ce:	000a      	movs	r2, r1
 80011d0:	e7bd      	b.n	800114e <__aeabi_ddiv+0x596>
 80011d2:	2300      	movs	r3, #0
 80011d4:	e708      	b.n	8000fe8 <__aeabi_ddiv+0x430>
 80011d6:	46c0      	nop			@ (mov r8, r8)
 80011d8:	000007ff 	.word	0x000007ff
 80011dc:	0000043e 	.word	0x0000043e
 80011e0:	0000041e 	.word	0x0000041e
 80011e4:	000003ff 	.word	0x000003ff
 80011e8:	fffffc02 	.word	0xfffffc02

080011ec <__aeabi_dmul>:
 80011ec:	b5f0      	push	{r4, r5, r6, r7, lr}
 80011ee:	4657      	mov	r7, sl
 80011f0:	46de      	mov	lr, fp
 80011f2:	464e      	mov	r6, r9
 80011f4:	4645      	mov	r5, r8
 80011f6:	b5e0      	push	{r5, r6, r7, lr}
 80011f8:	001f      	movs	r7, r3
 80011fa:	030b      	lsls	r3, r1, #12
 80011fc:	0b1b      	lsrs	r3, r3, #12
 80011fe:	0016      	movs	r6, r2
 8001200:	469a      	mov	sl, r3
 8001202:	0fca      	lsrs	r2, r1, #31
 8001204:	004b      	lsls	r3, r1, #1
 8001206:	0004      	movs	r4, r0
 8001208:	4693      	mov	fp, r2
 800120a:	b087      	sub	sp, #28
 800120c:	0d5b      	lsrs	r3, r3, #21
 800120e:	d100      	bne.n	8001212 <__aeabi_dmul+0x26>
 8001210:	e0d5      	b.n	80013be <__aeabi_dmul+0x1d2>
 8001212:	4abb      	ldr	r2, [pc, #748]	@ (8001500 <__aeabi_dmul+0x314>)
 8001214:	4293      	cmp	r3, r2
 8001216:	d100      	bne.n	800121a <__aeabi_dmul+0x2e>
 8001218:	e0f8      	b.n	800140c <__aeabi_dmul+0x220>
 800121a:	4651      	mov	r1, sl
 800121c:	0f42      	lsrs	r2, r0, #29
 800121e:	00c9      	lsls	r1, r1, #3
 8001220:	430a      	orrs	r2, r1
 8001222:	2180      	movs	r1, #128	@ 0x80
 8001224:	0409      	lsls	r1, r1, #16
 8001226:	4311      	orrs	r1, r2
 8001228:	00c2      	lsls	r2, r0, #3
 800122a:	4691      	mov	r9, r2
 800122c:	4ab5      	ldr	r2, [pc, #724]	@ (8001504 <__aeabi_dmul+0x318>)
 800122e:	468a      	mov	sl, r1
 8001230:	189d      	adds	r5, r3, r2
 8001232:	2300      	movs	r3, #0
 8001234:	4698      	mov	r8, r3
 8001236:	9302      	str	r3, [sp, #8]
 8001238:	033c      	lsls	r4, r7, #12
 800123a:	007b      	lsls	r3, r7, #1
 800123c:	0ffa      	lsrs	r2, r7, #31
 800123e:	0030      	movs	r0, r6
 8001240:	0b24      	lsrs	r4, r4, #12
 8001242:	0d5b      	lsrs	r3, r3, #21
 8001244:	9200      	str	r2, [sp, #0]
 8001246:	d100      	bne.n	800124a <__aeabi_dmul+0x5e>
 8001248:	e096      	b.n	8001378 <__aeabi_dmul+0x18c>
 800124a:	4aad      	ldr	r2, [pc, #692]	@ (8001500 <__aeabi_dmul+0x314>)
 800124c:	4293      	cmp	r3, r2
 800124e:	d031      	beq.n	80012b4 <__aeabi_dmul+0xc8>
 8001250:	0f72      	lsrs	r2, r6, #29
 8001252:	00e4      	lsls	r4, r4, #3
 8001254:	4322      	orrs	r2, r4
 8001256:	2480      	movs	r4, #128	@ 0x80
 8001258:	0424      	lsls	r4, r4, #16
 800125a:	4314      	orrs	r4, r2
 800125c:	4aa9      	ldr	r2, [pc, #676]	@ (8001504 <__aeabi_dmul+0x318>)
 800125e:	00f0      	lsls	r0, r6, #3
 8001260:	4694      	mov	ip, r2
 8001262:	4463      	add	r3, ip
 8001264:	195b      	adds	r3, r3, r5
 8001266:	1c5a      	adds	r2, r3, #1
 8001268:	9201      	str	r2, [sp, #4]
 800126a:	4642      	mov	r2, r8
 800126c:	2600      	movs	r6, #0
 800126e:	2a0a      	cmp	r2, #10
 8001270:	dc42      	bgt.n	80012f8 <__aeabi_dmul+0x10c>
 8001272:	465a      	mov	r2, fp
 8001274:	9900      	ldr	r1, [sp, #0]
 8001276:	404a      	eors	r2, r1
 8001278:	4693      	mov	fp, r2
 800127a:	4642      	mov	r2, r8
 800127c:	2a02      	cmp	r2, #2
 800127e:	dc32      	bgt.n	80012e6 <__aeabi_dmul+0xfa>
 8001280:	3a01      	subs	r2, #1
 8001282:	2a01      	cmp	r2, #1
 8001284:	d900      	bls.n	8001288 <__aeabi_dmul+0x9c>
 8001286:	e149      	b.n	800151c <__aeabi_dmul+0x330>
 8001288:	2e02      	cmp	r6, #2
 800128a:	d100      	bne.n	800128e <__aeabi_dmul+0xa2>
 800128c:	e0ca      	b.n	8001424 <__aeabi_dmul+0x238>
 800128e:	2e01      	cmp	r6, #1
 8001290:	d13d      	bne.n	800130e <__aeabi_dmul+0x122>
 8001292:	2300      	movs	r3, #0
 8001294:	2400      	movs	r4, #0
 8001296:	2200      	movs	r2, #0
 8001298:	0010      	movs	r0, r2
 800129a:	465a      	mov	r2, fp
 800129c:	051b      	lsls	r3, r3, #20
 800129e:	4323      	orrs	r3, r4
 80012a0:	07d2      	lsls	r2, r2, #31
 80012a2:	4313      	orrs	r3, r2
 80012a4:	0019      	movs	r1, r3
 80012a6:	b007      	add	sp, #28
 80012a8:	bcf0      	pop	{r4, r5, r6, r7}
 80012aa:	46bb      	mov	fp, r7
 80012ac:	46b2      	mov	sl, r6
 80012ae:	46a9      	mov	r9, r5
 80012b0:	46a0      	mov	r8, r4
 80012b2:	bdf0      	pop	{r4, r5, r6, r7, pc}
 80012b4:	4b92      	ldr	r3, [pc, #584]	@ (8001500 <__aeabi_dmul+0x314>)
 80012b6:	4326      	orrs	r6, r4
 80012b8:	18eb      	adds	r3, r5, r3
 80012ba:	2e00      	cmp	r6, #0
 80012bc:	d100      	bne.n	80012c0 <__aeabi_dmul+0xd4>
 80012be:	e0bb      	b.n	8001438 <__aeabi_dmul+0x24c>
 80012c0:	2203      	movs	r2, #3
 80012c2:	4641      	mov	r1, r8
 80012c4:	4311      	orrs	r1, r2
 80012c6:	465a      	mov	r2, fp
 80012c8:	4688      	mov	r8, r1
 80012ca:	9900      	ldr	r1, [sp, #0]
 80012cc:	404a      	eors	r2, r1
 80012ce:	2180      	movs	r1, #128	@ 0x80
 80012d0:	0109      	lsls	r1, r1, #4
 80012d2:	468c      	mov	ip, r1
 80012d4:	0029      	movs	r1, r5
 80012d6:	4461      	add	r1, ip
 80012d8:	9101      	str	r1, [sp, #4]
 80012da:	4641      	mov	r1, r8
 80012dc:	290a      	cmp	r1, #10
 80012de:	dd00      	ble.n	80012e2 <__aeabi_dmul+0xf6>
 80012e0:	e233      	b.n	800174a <__aeabi_dmul+0x55e>
 80012e2:	4693      	mov	fp, r2
 80012e4:	2603      	movs	r6, #3
 80012e6:	4642      	mov	r2, r8
 80012e8:	2701      	movs	r7, #1
 80012ea:	4097      	lsls	r7, r2
 80012ec:	21a6      	movs	r1, #166	@ 0xa6
 80012ee:	003a      	movs	r2, r7
 80012f0:	00c9      	lsls	r1, r1, #3
 80012f2:	400a      	ands	r2, r1
 80012f4:	420f      	tst	r7, r1
 80012f6:	d031      	beq.n	800135c <__aeabi_dmul+0x170>
 80012f8:	9e02      	ldr	r6, [sp, #8]
 80012fa:	2e02      	cmp	r6, #2
 80012fc:	d100      	bne.n	8001300 <__aeabi_dmul+0x114>
 80012fe:	e235      	b.n	800176c <__aeabi_dmul+0x580>
 8001300:	2e03      	cmp	r6, #3
 8001302:	d100      	bne.n	8001306 <__aeabi_dmul+0x11a>
 8001304:	e1d2      	b.n	80016ac <__aeabi_dmul+0x4c0>
 8001306:	4654      	mov	r4, sl
 8001308:	4648      	mov	r0, r9
 800130a:	2e01      	cmp	r6, #1
 800130c:	d0c1      	beq.n	8001292 <__aeabi_dmul+0xa6>
 800130e:	9a01      	ldr	r2, [sp, #4]
 8001310:	4b7d      	ldr	r3, [pc, #500]	@ (8001508 <__aeabi_dmul+0x31c>)
 8001312:	4694      	mov	ip, r2
 8001314:	4463      	add	r3, ip
 8001316:	2b00      	cmp	r3, #0
 8001318:	dc00      	bgt.n	800131c <__aeabi_dmul+0x130>
 800131a:	e0c0      	b.n	800149e <__aeabi_dmul+0x2b2>
 800131c:	0742      	lsls	r2, r0, #29
 800131e:	d009      	beq.n	8001334 <__aeabi_dmul+0x148>
 8001320:	220f      	movs	r2, #15
 8001322:	4002      	ands	r2, r0
 8001324:	2a04      	cmp	r2, #4
 8001326:	d005      	beq.n	8001334 <__aeabi_dmul+0x148>
 8001328:	1d02      	adds	r2, r0, #4
 800132a:	4282      	cmp	r2, r0
 800132c:	4180      	sbcs	r0, r0
 800132e:	4240      	negs	r0, r0
 8001330:	1824      	adds	r4, r4, r0
 8001332:	0010      	movs	r0, r2
 8001334:	01e2      	lsls	r2, r4, #7
 8001336:	d506      	bpl.n	8001346 <__aeabi_dmul+0x15a>
 8001338:	4b74      	ldr	r3, [pc, #464]	@ (800150c <__aeabi_dmul+0x320>)
 800133a:	9a01      	ldr	r2, [sp, #4]
 800133c:	401c      	ands	r4, r3
 800133e:	2380      	movs	r3, #128	@ 0x80
 8001340:	4694      	mov	ip, r2
 8001342:	00db      	lsls	r3, r3, #3
 8001344:	4463      	add	r3, ip
 8001346:	4a72      	ldr	r2, [pc, #456]	@ (8001510 <__aeabi_dmul+0x324>)
 8001348:	4293      	cmp	r3, r2
 800134a:	dc6b      	bgt.n	8001424 <__aeabi_dmul+0x238>
 800134c:	0762      	lsls	r2, r4, #29
 800134e:	08c0      	lsrs	r0, r0, #3
 8001350:	0264      	lsls	r4, r4, #9
 8001352:	055b      	lsls	r3, r3, #21
 8001354:	4302      	orrs	r2, r0
 8001356:	0b24      	lsrs	r4, r4, #12
 8001358:	0d5b      	lsrs	r3, r3, #21
 800135a:	e79d      	b.n	8001298 <__aeabi_dmul+0xac>
 800135c:	2190      	movs	r1, #144	@ 0x90
 800135e:	0089      	lsls	r1, r1, #2
 8001360:	420f      	tst	r7, r1
 8001362:	d163      	bne.n	800142c <__aeabi_dmul+0x240>
 8001364:	2288      	movs	r2, #136	@ 0x88
 8001366:	423a      	tst	r2, r7
 8001368:	d100      	bne.n	800136c <__aeabi_dmul+0x180>
 800136a:	e0d7      	b.n	800151c <__aeabi_dmul+0x330>
 800136c:	9b00      	ldr	r3, [sp, #0]
 800136e:	46a2      	mov	sl, r4
 8001370:	469b      	mov	fp, r3
 8001372:	4681      	mov	r9, r0
 8001374:	9602      	str	r6, [sp, #8]
 8001376:	e7bf      	b.n	80012f8 <__aeabi_dmul+0x10c>
 8001378:	0023      	movs	r3, r4
 800137a:	4333      	orrs	r3, r6
 800137c:	d100      	bne.n	8001380 <__aeabi_dmul+0x194>
 800137e:	e07f      	b.n	8001480 <__aeabi_dmul+0x294>
 8001380:	2c00      	cmp	r4, #0
 8001382:	d100      	bne.n	8001386 <__aeabi_dmul+0x19a>
 8001384:	e1ad      	b.n	80016e2 <__aeabi_dmul+0x4f6>
 8001386:	0020      	movs	r0, r4
 8001388:	f000 fa62 	bl	8001850 <__clzsi2>
 800138c:	0002      	movs	r2, r0
 800138e:	0003      	movs	r3, r0
 8001390:	3a0b      	subs	r2, #11
 8001392:	201d      	movs	r0, #29
 8001394:	0019      	movs	r1, r3
 8001396:	1a82      	subs	r2, r0, r2
 8001398:	0030      	movs	r0, r6
 800139a:	3908      	subs	r1, #8
 800139c:	40d0      	lsrs	r0, r2
 800139e:	408c      	lsls	r4, r1
 80013a0:	4304      	orrs	r4, r0
 80013a2:	0030      	movs	r0, r6
 80013a4:	4088      	lsls	r0, r1
 80013a6:	4a5b      	ldr	r2, [pc, #364]	@ (8001514 <__aeabi_dmul+0x328>)
 80013a8:	1aeb      	subs	r3, r5, r3
 80013aa:	4694      	mov	ip, r2
 80013ac:	4463      	add	r3, ip
 80013ae:	1c5a      	adds	r2, r3, #1
 80013b0:	9201      	str	r2, [sp, #4]
 80013b2:	4642      	mov	r2, r8
 80013b4:	2600      	movs	r6, #0
 80013b6:	2a0a      	cmp	r2, #10
 80013b8:	dc00      	bgt.n	80013bc <__aeabi_dmul+0x1d0>
 80013ba:	e75a      	b.n	8001272 <__aeabi_dmul+0x86>
 80013bc:	e79c      	b.n	80012f8 <__aeabi_dmul+0x10c>
 80013be:	4653      	mov	r3, sl
 80013c0:	4303      	orrs	r3, r0
 80013c2:	4699      	mov	r9, r3
 80013c4:	d054      	beq.n	8001470 <__aeabi_dmul+0x284>
 80013c6:	4653      	mov	r3, sl
 80013c8:	2b00      	cmp	r3, #0
 80013ca:	d100      	bne.n	80013ce <__aeabi_dmul+0x1e2>
 80013cc:	e177      	b.n	80016be <__aeabi_dmul+0x4d2>
 80013ce:	4650      	mov	r0, sl
 80013d0:	f000 fa3e 	bl	8001850 <__clzsi2>
 80013d4:	230b      	movs	r3, #11
 80013d6:	425b      	negs	r3, r3
 80013d8:	469c      	mov	ip, r3
 80013da:	0002      	movs	r2, r0
 80013dc:	4484      	add	ip, r0
 80013de:	0011      	movs	r1, r2
 80013e0:	4650      	mov	r0, sl
 80013e2:	3908      	subs	r1, #8
 80013e4:	4088      	lsls	r0, r1
 80013e6:	231d      	movs	r3, #29
 80013e8:	4680      	mov	r8, r0
 80013ea:	4660      	mov	r0, ip
 80013ec:	1a1b      	subs	r3, r3, r0
 80013ee:	0020      	movs	r0, r4
 80013f0:	40d8      	lsrs	r0, r3
 80013f2:	0003      	movs	r3, r0
 80013f4:	4640      	mov	r0, r8
 80013f6:	4303      	orrs	r3, r0
 80013f8:	469a      	mov	sl, r3
 80013fa:	0023      	movs	r3, r4
 80013fc:	408b      	lsls	r3, r1
 80013fe:	4699      	mov	r9, r3
 8001400:	2300      	movs	r3, #0
 8001402:	4d44      	ldr	r5, [pc, #272]	@ (8001514 <__aeabi_dmul+0x328>)
 8001404:	4698      	mov	r8, r3
 8001406:	1aad      	subs	r5, r5, r2
 8001408:	9302      	str	r3, [sp, #8]
 800140a:	e715      	b.n	8001238 <__aeabi_dmul+0x4c>
 800140c:	4652      	mov	r2, sl
 800140e:	4302      	orrs	r2, r0
 8001410:	4691      	mov	r9, r2
 8001412:	d126      	bne.n	8001462 <__aeabi_dmul+0x276>
 8001414:	2200      	movs	r2, #0
 8001416:	001d      	movs	r5, r3
 8001418:	2302      	movs	r3, #2
 800141a:	4692      	mov	sl, r2
 800141c:	3208      	adds	r2, #8
 800141e:	4690      	mov	r8, r2
 8001420:	9302      	str	r3, [sp, #8]
 8001422:	e709      	b.n	8001238 <__aeabi_dmul+0x4c>
 8001424:	2400      	movs	r4, #0
 8001426:	2200      	movs	r2, #0
 8001428:	4b35      	ldr	r3, [pc, #212]	@ (8001500 <__aeabi_dmul+0x314>)
 800142a:	e735      	b.n	8001298 <__aeabi_dmul+0xac>
 800142c:	2300      	movs	r3, #0
 800142e:	2480      	movs	r4, #128	@ 0x80
 8001430:	469b      	mov	fp, r3
 8001432:	0324      	lsls	r4, r4, #12
 8001434:	4b32      	ldr	r3, [pc, #200]	@ (8001500 <__aeabi_dmul+0x314>)
 8001436:	e72f      	b.n	8001298 <__aeabi_dmul+0xac>
 8001438:	2202      	movs	r2, #2
 800143a:	4641      	mov	r1, r8
 800143c:	4311      	orrs	r1, r2
 800143e:	2280      	movs	r2, #128	@ 0x80
 8001440:	0112      	lsls	r2, r2, #4
 8001442:	4694      	mov	ip, r2
 8001444:	002a      	movs	r2, r5
 8001446:	4462      	add	r2, ip
 8001448:	4688      	mov	r8, r1
 800144a:	9201      	str	r2, [sp, #4]
 800144c:	290a      	cmp	r1, #10
 800144e:	dd00      	ble.n	8001452 <__aeabi_dmul+0x266>
 8001450:	e752      	b.n	80012f8 <__aeabi_dmul+0x10c>
 8001452:	465a      	mov	r2, fp
 8001454:	2000      	movs	r0, #0
 8001456:	9900      	ldr	r1, [sp, #0]
 8001458:	0004      	movs	r4, r0
 800145a:	404a      	eors	r2, r1
 800145c:	4693      	mov	fp, r2
 800145e:	2602      	movs	r6, #2
 8001460:	e70b      	b.n	800127a <__aeabi_dmul+0x8e>
 8001462:	220c      	movs	r2, #12
 8001464:	001d      	movs	r5, r3
 8001466:	2303      	movs	r3, #3
 8001468:	4681      	mov	r9, r0
 800146a:	4690      	mov	r8, r2
 800146c:	9302      	str	r3, [sp, #8]
 800146e:	e6e3      	b.n	8001238 <__aeabi_dmul+0x4c>
 8001470:	2300      	movs	r3, #0
 8001472:	469a      	mov	sl, r3
 8001474:	3304      	adds	r3, #4
 8001476:	4698      	mov	r8, r3
 8001478:	3b03      	subs	r3, #3
 800147a:	2500      	movs	r5, #0
 800147c:	9302      	str	r3, [sp, #8]
 800147e:	e6db      	b.n	8001238 <__aeabi_dmul+0x4c>
 8001480:	4642      	mov	r2, r8
 8001482:	3301      	adds	r3, #1
 8001484:	431a      	orrs	r2, r3
 8001486:	002b      	movs	r3, r5
 8001488:	4690      	mov	r8, r2
 800148a:	1c5a      	adds	r2, r3, #1
 800148c:	9201      	str	r2, [sp, #4]
 800148e:	4642      	mov	r2, r8
 8001490:	2400      	movs	r4, #0
 8001492:	2000      	movs	r0, #0
 8001494:	2601      	movs	r6, #1
 8001496:	2a0a      	cmp	r2, #10
 8001498:	dc00      	bgt.n	800149c <__aeabi_dmul+0x2b0>
 800149a:	e6ea      	b.n	8001272 <__aeabi_dmul+0x86>
 800149c:	e72c      	b.n	80012f8 <__aeabi_dmul+0x10c>
 800149e:	2201      	movs	r2, #1
 80014a0:	1ad2      	subs	r2, r2, r3
 80014a2:	2a38      	cmp	r2, #56	@ 0x38
 80014a4:	dd00      	ble.n	80014a8 <__aeabi_dmul+0x2bc>
 80014a6:	e6f4      	b.n	8001292 <__aeabi_dmul+0xa6>
 80014a8:	2a1f      	cmp	r2, #31
 80014aa:	dc00      	bgt.n	80014ae <__aeabi_dmul+0x2c2>
 80014ac:	e12a      	b.n	8001704 <__aeabi_dmul+0x518>
 80014ae:	211f      	movs	r1, #31
 80014b0:	4249      	negs	r1, r1
 80014b2:	1acb      	subs	r3, r1, r3
 80014b4:	0021      	movs	r1, r4
 80014b6:	40d9      	lsrs	r1, r3
 80014b8:	000b      	movs	r3, r1
 80014ba:	2a20      	cmp	r2, #32
 80014bc:	d005      	beq.n	80014ca <__aeabi_dmul+0x2de>
 80014be:	4a16      	ldr	r2, [pc, #88]	@ (8001518 <__aeabi_dmul+0x32c>)
 80014c0:	9d01      	ldr	r5, [sp, #4]
 80014c2:	4694      	mov	ip, r2
 80014c4:	4465      	add	r5, ip
 80014c6:	40ac      	lsls	r4, r5
 80014c8:	4320      	orrs	r0, r4
 80014ca:	1e42      	subs	r2, r0, #1
 80014cc:	4190      	sbcs	r0, r2
 80014ce:	4318      	orrs	r0, r3
 80014d0:	2307      	movs	r3, #7
 80014d2:	0019      	movs	r1, r3
 80014d4:	2400      	movs	r4, #0
 80014d6:	4001      	ands	r1, r0
 80014d8:	4203      	tst	r3, r0
 80014da:	d00c      	beq.n	80014f6 <__aeabi_dmul+0x30a>
 80014dc:	230f      	movs	r3, #15
 80014de:	4003      	ands	r3, r0
 80014e0:	2b04      	cmp	r3, #4
 80014e2:	d100      	bne.n	80014e6 <__aeabi_dmul+0x2fa>
 80014e4:	e140      	b.n	8001768 <__aeabi_dmul+0x57c>
 80014e6:	1d03      	adds	r3, r0, #4
 80014e8:	4283      	cmp	r3, r0
 80014ea:	41a4      	sbcs	r4, r4
 80014ec:	0018      	movs	r0, r3
 80014ee:	4264      	negs	r4, r4
 80014f0:	0761      	lsls	r1, r4, #29
 80014f2:	0264      	lsls	r4, r4, #9
 80014f4:	0b24      	lsrs	r4, r4, #12
 80014f6:	08c2      	lsrs	r2, r0, #3
 80014f8:	2300      	movs	r3, #0
 80014fa:	430a      	orrs	r2, r1
 80014fc:	e6cc      	b.n	8001298 <__aeabi_dmul+0xac>
 80014fe:	46c0      	nop			@ (mov r8, r8)
 8001500:	000007ff 	.word	0x000007ff
 8001504:	fffffc01 	.word	0xfffffc01
 8001508:	000003ff 	.word	0x000003ff
 800150c:	feffffff 	.word	0xfeffffff
 8001510:	000007fe 	.word	0x000007fe
 8001514:	fffffc0d 	.word	0xfffffc0d
 8001518:	0000043e 	.word	0x0000043e
 800151c:	4649      	mov	r1, r9
 800151e:	464a      	mov	r2, r9
 8001520:	0409      	lsls	r1, r1, #16
 8001522:	0c09      	lsrs	r1, r1, #16
 8001524:	000d      	movs	r5, r1
 8001526:	0c16      	lsrs	r6, r2, #16
 8001528:	0c02      	lsrs	r2, r0, #16
 800152a:	0400      	lsls	r0, r0, #16
 800152c:	0c00      	lsrs	r0, r0, #16
 800152e:	4345      	muls	r5, r0
 8001530:	46ac      	mov	ip, r5
 8001532:	0005      	movs	r5, r0
 8001534:	4375      	muls	r5, r6
 8001536:	46a8      	mov	r8, r5
 8001538:	0015      	movs	r5, r2
 800153a:	000f      	movs	r7, r1
 800153c:	4375      	muls	r5, r6
 800153e:	9200      	str	r2, [sp, #0]
 8001540:	9502      	str	r5, [sp, #8]
 8001542:	002a      	movs	r2, r5
 8001544:	9d00      	ldr	r5, [sp, #0]
 8001546:	436f      	muls	r7, r5
 8001548:	4665      	mov	r5, ip
 800154a:	0c2d      	lsrs	r5, r5, #16
 800154c:	46a9      	mov	r9, r5
 800154e:	4447      	add	r7, r8
 8001550:	444f      	add	r7, r9
 8001552:	45b8      	cmp	r8, r7
 8001554:	d905      	bls.n	8001562 <__aeabi_dmul+0x376>
 8001556:	0015      	movs	r5, r2
 8001558:	2280      	movs	r2, #128	@ 0x80
 800155a:	0252      	lsls	r2, r2, #9
 800155c:	4690      	mov	r8, r2
 800155e:	4445      	add	r5, r8
 8001560:	9502      	str	r5, [sp, #8]
 8001562:	0c3d      	lsrs	r5, r7, #16
 8001564:	9503      	str	r5, [sp, #12]
 8001566:	4665      	mov	r5, ip
 8001568:	042d      	lsls	r5, r5, #16
 800156a:	043f      	lsls	r7, r7, #16
 800156c:	0c2d      	lsrs	r5, r5, #16
 800156e:	46ac      	mov	ip, r5
 8001570:	003d      	movs	r5, r7
 8001572:	4465      	add	r5, ip
 8001574:	9504      	str	r5, [sp, #16]
 8001576:	0c25      	lsrs	r5, r4, #16
 8001578:	0424      	lsls	r4, r4, #16
 800157a:	0c24      	lsrs	r4, r4, #16
 800157c:	46ac      	mov	ip, r5
 800157e:	0025      	movs	r5, r4
 8001580:	4375      	muls	r5, r6
 8001582:	46a8      	mov	r8, r5
 8001584:	4665      	mov	r5, ip
 8001586:	000f      	movs	r7, r1
 8001588:	4369      	muls	r1, r5
 800158a:	4441      	add	r1, r8
 800158c:	4689      	mov	r9, r1
 800158e:	4367      	muls	r7, r4
 8001590:	0c39      	lsrs	r1, r7, #16
 8001592:	4449      	add	r1, r9
 8001594:	436e      	muls	r6, r5
 8001596:	4588      	cmp	r8, r1
 8001598:	d903      	bls.n	80015a2 <__aeabi_dmul+0x3b6>
 800159a:	2280      	movs	r2, #128	@ 0x80
 800159c:	0252      	lsls	r2, r2, #9
 800159e:	4690      	mov	r8, r2
 80015a0:	4446      	add	r6, r8
 80015a2:	0c0d      	lsrs	r5, r1, #16
 80015a4:	46a8      	mov	r8, r5
 80015a6:	0035      	movs	r5, r6
 80015a8:	4445      	add	r5, r8
 80015aa:	9505      	str	r5, [sp, #20]
 80015ac:	9d03      	ldr	r5, [sp, #12]
 80015ae:	043f      	lsls	r7, r7, #16
 80015b0:	46a8      	mov	r8, r5
 80015b2:	0c3f      	lsrs	r7, r7, #16
 80015b4:	0409      	lsls	r1, r1, #16
 80015b6:	19c9      	adds	r1, r1, r7
 80015b8:	4488      	add	r8, r1
 80015ba:	4645      	mov	r5, r8
 80015bc:	9503      	str	r5, [sp, #12]
 80015be:	4655      	mov	r5, sl
 80015c0:	042e      	lsls	r6, r5, #16
 80015c2:	0c36      	lsrs	r6, r6, #16
 80015c4:	0c2f      	lsrs	r7, r5, #16
 80015c6:	0035      	movs	r5, r6
 80015c8:	4345      	muls	r5, r0
 80015ca:	4378      	muls	r0, r7
 80015cc:	4681      	mov	r9, r0
 80015ce:	0038      	movs	r0, r7
 80015d0:	46a8      	mov	r8, r5
 80015d2:	0c2d      	lsrs	r5, r5, #16
 80015d4:	46aa      	mov	sl, r5
 80015d6:	9a00      	ldr	r2, [sp, #0]
 80015d8:	4350      	muls	r0, r2
 80015da:	4372      	muls	r2, r6
 80015dc:	444a      	add	r2, r9
 80015de:	4452      	add	r2, sl
 80015e0:	4591      	cmp	r9, r2
 80015e2:	d903      	bls.n	80015ec <__aeabi_dmul+0x400>
 80015e4:	2580      	movs	r5, #128	@ 0x80
 80015e6:	026d      	lsls	r5, r5, #9
 80015e8:	46a9      	mov	r9, r5
 80015ea:	4448      	add	r0, r9
 80015ec:	0c15      	lsrs	r5, r2, #16
 80015ee:	46a9      	mov	r9, r5
 80015f0:	4645      	mov	r5, r8
 80015f2:	042d      	lsls	r5, r5, #16
 80015f4:	0c2d      	lsrs	r5, r5, #16
 80015f6:	46a8      	mov	r8, r5
 80015f8:	4665      	mov	r5, ip
 80015fa:	437d      	muls	r5, r7
 80015fc:	0412      	lsls	r2, r2, #16
 80015fe:	4448      	add	r0, r9
 8001600:	4490      	add	r8, r2
 8001602:	46a9      	mov	r9, r5
 8001604:	0032      	movs	r2, r6
 8001606:	4665      	mov	r5, ip
 8001608:	4362      	muls	r2, r4
 800160a:	436e      	muls	r6, r5
 800160c:	437c      	muls	r4, r7
 800160e:	0c17      	lsrs	r7, r2, #16
 8001610:	1936      	adds	r6, r6, r4
 8001612:	19bf      	adds	r7, r7, r6
 8001614:	42bc      	cmp	r4, r7
 8001616:	d903      	bls.n	8001620 <__aeabi_dmul+0x434>
 8001618:	2480      	movs	r4, #128	@ 0x80
 800161a:	0264      	lsls	r4, r4, #9
 800161c:	46a4      	mov	ip, r4
 800161e:	44e1      	add	r9, ip
 8001620:	9c02      	ldr	r4, [sp, #8]
 8001622:	9e03      	ldr	r6, [sp, #12]
 8001624:	46a4      	mov	ip, r4
 8001626:	9d05      	ldr	r5, [sp, #20]
 8001628:	4466      	add	r6, ip
 800162a:	428e      	cmp	r6, r1
 800162c:	4189      	sbcs	r1, r1
 800162e:	46ac      	mov	ip, r5
 8001630:	0412      	lsls	r2, r2, #16
 8001632:	043c      	lsls	r4, r7, #16
 8001634:	0c12      	lsrs	r2, r2, #16
 8001636:	18a2      	adds	r2, r4, r2
 8001638:	4462      	add	r2, ip
 800163a:	4249      	negs	r1, r1
 800163c:	1854      	adds	r4, r2, r1
 800163e:	4446      	add	r6, r8
 8001640:	46a4      	mov	ip, r4
 8001642:	4546      	cmp	r6, r8
 8001644:	41a4      	sbcs	r4, r4
 8001646:	4682      	mov	sl, r0
 8001648:	4264      	negs	r4, r4
 800164a:	46a0      	mov	r8, r4
 800164c:	42aa      	cmp	r2, r5
 800164e:	4192      	sbcs	r2, r2
 8001650:	458c      	cmp	ip, r1
 8001652:	4189      	sbcs	r1, r1
 8001654:	44e2      	add	sl, ip
 8001656:	44d0      	add	r8, sl
 8001658:	4249      	negs	r1, r1
 800165a:	4252      	negs	r2, r2
 800165c:	430a      	orrs	r2, r1
 800165e:	45a0      	cmp	r8, r4
 8001660:	41a4      	sbcs	r4, r4
 8001662:	4582      	cmp	sl, r0
 8001664:	4189      	sbcs	r1, r1
 8001666:	4264      	negs	r4, r4
 8001668:	4249      	negs	r1, r1
 800166a:	430c      	orrs	r4, r1
 800166c:	4641      	mov	r1, r8
 800166e:	0c3f      	lsrs	r7, r7, #16
 8001670:	19d2      	adds	r2, r2, r7
 8001672:	1912      	adds	r2, r2, r4
 8001674:	0dcc      	lsrs	r4, r1, #23
 8001676:	9904      	ldr	r1, [sp, #16]
 8001678:	0270      	lsls	r0, r6, #9
 800167a:	4308      	orrs	r0, r1
 800167c:	1e41      	subs	r1, r0, #1
 800167e:	4188      	sbcs	r0, r1
 8001680:	4641      	mov	r1, r8
 8001682:	444a      	add	r2, r9
 8001684:	0df6      	lsrs	r6, r6, #23
 8001686:	0252      	lsls	r2, r2, #9
 8001688:	4330      	orrs	r0, r6
 800168a:	0249      	lsls	r1, r1, #9
 800168c:	4314      	orrs	r4, r2
 800168e:	4308      	orrs	r0, r1
 8001690:	01d2      	lsls	r2, r2, #7
 8001692:	d535      	bpl.n	8001700 <__aeabi_dmul+0x514>
 8001694:	2201      	movs	r2, #1
 8001696:	0843      	lsrs	r3, r0, #1
 8001698:	4002      	ands	r2, r0
 800169a:	4313      	orrs	r3, r2
 800169c:	07e0      	lsls	r0, r4, #31
 800169e:	4318      	orrs	r0, r3
 80016a0:	0864      	lsrs	r4, r4, #1
 80016a2:	e634      	b.n	800130e <__aeabi_dmul+0x122>
 80016a4:	9b00      	ldr	r3, [sp, #0]
 80016a6:	46a2      	mov	sl, r4
 80016a8:	469b      	mov	fp, r3
 80016aa:	4681      	mov	r9, r0
 80016ac:	2480      	movs	r4, #128	@ 0x80
 80016ae:	4653      	mov	r3, sl
 80016b0:	0324      	lsls	r4, r4, #12
 80016b2:	431c      	orrs	r4, r3
 80016b4:	0324      	lsls	r4, r4, #12
 80016b6:	464a      	mov	r2, r9
 80016b8:	4b2e      	ldr	r3, [pc, #184]	@ (8001774 <__aeabi_dmul+0x588>)
 80016ba:	0b24      	lsrs	r4, r4, #12
 80016bc:	e5ec      	b.n	8001298 <__aeabi_dmul+0xac>
 80016be:	f000 f8c7 	bl	8001850 <__clzsi2>
 80016c2:	2315      	movs	r3, #21
 80016c4:	469c      	mov	ip, r3
 80016c6:	4484      	add	ip, r0
 80016c8:	0002      	movs	r2, r0
 80016ca:	4663      	mov	r3, ip
 80016cc:	3220      	adds	r2, #32
 80016ce:	2b1c      	cmp	r3, #28
 80016d0:	dc00      	bgt.n	80016d4 <__aeabi_dmul+0x4e8>
 80016d2:	e684      	b.n	80013de <__aeabi_dmul+0x1f2>
 80016d4:	2300      	movs	r3, #0
 80016d6:	4699      	mov	r9, r3
 80016d8:	0023      	movs	r3, r4
 80016da:	3808      	subs	r0, #8
 80016dc:	4083      	lsls	r3, r0
 80016de:	469a      	mov	sl, r3
 80016e0:	e68e      	b.n	8001400 <__aeabi_dmul+0x214>
 80016e2:	f000 f8b5 	bl	8001850 <__clzsi2>
 80016e6:	0002      	movs	r2, r0
 80016e8:	0003      	movs	r3, r0
 80016ea:	3215      	adds	r2, #21
 80016ec:	3320      	adds	r3, #32
 80016ee:	2a1c      	cmp	r2, #28
 80016f0:	dc00      	bgt.n	80016f4 <__aeabi_dmul+0x508>
 80016f2:	e64e      	b.n	8001392 <__aeabi_dmul+0x1a6>
 80016f4:	0002      	movs	r2, r0
 80016f6:	0034      	movs	r4, r6
 80016f8:	3a08      	subs	r2, #8
 80016fa:	2000      	movs	r0, #0
 80016fc:	4094      	lsls	r4, r2
 80016fe:	e652      	b.n	80013a6 <__aeabi_dmul+0x1ba>
 8001700:	9301      	str	r3, [sp, #4]
 8001702:	e604      	b.n	800130e <__aeabi_dmul+0x122>
 8001704:	4b1c      	ldr	r3, [pc, #112]	@ (8001778 <__aeabi_dmul+0x58c>)
 8001706:	0021      	movs	r1, r4
 8001708:	469c      	mov	ip, r3
 800170a:	0003      	movs	r3, r0
 800170c:	9d01      	ldr	r5, [sp, #4]
 800170e:	40d3      	lsrs	r3, r2
 8001710:	4465      	add	r5, ip
 8001712:	40a9      	lsls	r1, r5
 8001714:	4319      	orrs	r1, r3
 8001716:	0003      	movs	r3, r0
 8001718:	40ab      	lsls	r3, r5
 800171a:	1e58      	subs	r0, r3, #1
 800171c:	4183      	sbcs	r3, r0
 800171e:	4319      	orrs	r1, r3
 8001720:	0008      	movs	r0, r1
 8001722:	40d4      	lsrs	r4, r2
 8001724:	074b      	lsls	r3, r1, #29
 8001726:	d009      	beq.n	800173c <__aeabi_dmul+0x550>
 8001728:	230f      	movs	r3, #15
 800172a:	400b      	ands	r3, r1
 800172c:	2b04      	cmp	r3, #4
 800172e:	d005      	beq.n	800173c <__aeabi_dmul+0x550>
 8001730:	1d0b      	adds	r3, r1, #4
 8001732:	428b      	cmp	r3, r1
 8001734:	4180      	sbcs	r0, r0
 8001736:	4240      	negs	r0, r0
 8001738:	1824      	adds	r4, r4, r0
 800173a:	0018      	movs	r0, r3
 800173c:	0223      	lsls	r3, r4, #8
 800173e:	d400      	bmi.n	8001742 <__aeabi_dmul+0x556>
 8001740:	e6d6      	b.n	80014f0 <__aeabi_dmul+0x304>
 8001742:	2301      	movs	r3, #1
 8001744:	2400      	movs	r4, #0
 8001746:	2200      	movs	r2, #0
 8001748:	e5a6      	b.n	8001298 <__aeabi_dmul+0xac>
 800174a:	290f      	cmp	r1, #15
 800174c:	d1aa      	bne.n	80016a4 <__aeabi_dmul+0x4b8>
 800174e:	2380      	movs	r3, #128	@ 0x80
 8001750:	4652      	mov	r2, sl
 8001752:	031b      	lsls	r3, r3, #12
 8001754:	421a      	tst	r2, r3
 8001756:	d0a9      	beq.n	80016ac <__aeabi_dmul+0x4c0>
 8001758:	421c      	tst	r4, r3
 800175a:	d1a7      	bne.n	80016ac <__aeabi_dmul+0x4c0>
 800175c:	431c      	orrs	r4, r3
 800175e:	9b00      	ldr	r3, [sp, #0]
 8001760:	0002      	movs	r2, r0
 8001762:	469b      	mov	fp, r3
 8001764:	4b03      	ldr	r3, [pc, #12]	@ (8001774 <__aeabi_dmul+0x588>)
 8001766:	e597      	b.n	8001298 <__aeabi_dmul+0xac>
 8001768:	2400      	movs	r4, #0
 800176a:	e6c1      	b.n	80014f0 <__aeabi_dmul+0x304>
 800176c:	2400      	movs	r4, #0
 800176e:	4b01      	ldr	r3, [pc, #4]	@ (8001774 <__aeabi_dmul+0x588>)
 8001770:	0022      	movs	r2, r4
 8001772:	e591      	b.n	8001298 <__aeabi_dmul+0xac>
 8001774:	000007ff 	.word	0x000007ff
 8001778:	0000041e 	.word	0x0000041e

0800177c <__aeabi_d2iz>:
 800177c:	000b      	movs	r3, r1
 800177e:	0002      	movs	r2, r0
 8001780:	b570      	push	{r4, r5, r6, lr}
 8001782:	4d16      	ldr	r5, [pc, #88]	@ (80017dc <__aeabi_d2iz+0x60>)
 8001784:	030c      	lsls	r4, r1, #12
 8001786:	b082      	sub	sp, #8
 8001788:	0049      	lsls	r1, r1, #1
 800178a:	2000      	movs	r0, #0
 800178c:	9200      	str	r2, [sp, #0]
 800178e:	9301      	str	r3, [sp, #4]
 8001790:	0b24      	lsrs	r4, r4, #12
 8001792:	0d49      	lsrs	r1, r1, #21
 8001794:	0fde      	lsrs	r6, r3, #31
 8001796:	42a9      	cmp	r1, r5
 8001798:	dd04      	ble.n	80017a4 <__aeabi_d2iz+0x28>
 800179a:	4811      	ldr	r0, [pc, #68]	@ (80017e0 <__aeabi_d2iz+0x64>)
 800179c:	4281      	cmp	r1, r0
 800179e:	dd03      	ble.n	80017a8 <__aeabi_d2iz+0x2c>
 80017a0:	4b10      	ldr	r3, [pc, #64]	@ (80017e4 <__aeabi_d2iz+0x68>)
 80017a2:	18f0      	adds	r0, r6, r3
 80017a4:	b002      	add	sp, #8
 80017a6:	bd70      	pop	{r4, r5, r6, pc}
 80017a8:	2080      	movs	r0, #128	@ 0x80
 80017aa:	0340      	lsls	r0, r0, #13
 80017ac:	4320      	orrs	r0, r4
 80017ae:	4c0e      	ldr	r4, [pc, #56]	@ (80017e8 <__aeabi_d2iz+0x6c>)
 80017b0:	1a64      	subs	r4, r4, r1
 80017b2:	2c1f      	cmp	r4, #31
 80017b4:	dd08      	ble.n	80017c8 <__aeabi_d2iz+0x4c>
 80017b6:	4b0d      	ldr	r3, [pc, #52]	@ (80017ec <__aeabi_d2iz+0x70>)
 80017b8:	1a5b      	subs	r3, r3, r1
 80017ba:	40d8      	lsrs	r0, r3
 80017bc:	0003      	movs	r3, r0
 80017be:	4258      	negs	r0, r3
 80017c0:	2e00      	cmp	r6, #0
 80017c2:	d1ef      	bne.n	80017a4 <__aeabi_d2iz+0x28>
 80017c4:	0018      	movs	r0, r3
 80017c6:	e7ed      	b.n	80017a4 <__aeabi_d2iz+0x28>
 80017c8:	4b09      	ldr	r3, [pc, #36]	@ (80017f0 <__aeabi_d2iz+0x74>)
 80017ca:	9a00      	ldr	r2, [sp, #0]
 80017cc:	469c      	mov	ip, r3
 80017ce:	0003      	movs	r3, r0
 80017d0:	4461      	add	r1, ip
 80017d2:	408b      	lsls	r3, r1
 80017d4:	40e2      	lsrs	r2, r4
 80017d6:	4313      	orrs	r3, r2
 80017d8:	e7f1      	b.n	80017be <__aeabi_d2iz+0x42>
 80017da:	46c0      	nop			@ (mov r8, r8)
 80017dc:	000003fe 	.word	0x000003fe
 80017e0:	0000041d 	.word	0x0000041d
 80017e4:	7fffffff 	.word	0x7fffffff
 80017e8:	00000433 	.word	0x00000433
 80017ec:	00000413 	.word	0x00000413
 80017f0:	fffffbed 	.word	0xfffffbed

080017f4 <__aeabi_i2d>:
 80017f4:	b570      	push	{r4, r5, r6, lr}
 80017f6:	2800      	cmp	r0, #0
 80017f8:	d016      	beq.n	8001828 <__aeabi_i2d+0x34>
 80017fa:	17c3      	asrs	r3, r0, #31
 80017fc:	18c5      	adds	r5, r0, r3
 80017fe:	405d      	eors	r5, r3
 8001800:	0fc4      	lsrs	r4, r0, #31
 8001802:	0028      	movs	r0, r5
 8001804:	f000 f824 	bl	8001850 <__clzsi2>
 8001808:	4b10      	ldr	r3, [pc, #64]	@ (800184c <__aeabi_i2d+0x58>)
 800180a:	1a1b      	subs	r3, r3, r0
 800180c:	055b      	lsls	r3, r3, #21
 800180e:	0d5b      	lsrs	r3, r3, #21
 8001810:	280a      	cmp	r0, #10
 8001812:	dc14      	bgt.n	800183e <__aeabi_i2d+0x4a>
 8001814:	0002      	movs	r2, r0
 8001816:	002e      	movs	r6, r5
 8001818:	3215      	adds	r2, #21
 800181a:	4096      	lsls	r6, r2
 800181c:	220b      	movs	r2, #11
 800181e:	1a12      	subs	r2, r2, r0
 8001820:	40d5      	lsrs	r5, r2
 8001822:	032d      	lsls	r5, r5, #12
 8001824:	0b2d      	lsrs	r5, r5, #12
 8001826:	e003      	b.n	8001830 <__aeabi_i2d+0x3c>
 8001828:	2400      	movs	r4, #0
 800182a:	2300      	movs	r3, #0
 800182c:	2500      	movs	r5, #0
 800182e:	2600      	movs	r6, #0
 8001830:	051b      	lsls	r3, r3, #20
 8001832:	432b      	orrs	r3, r5
 8001834:	07e4      	lsls	r4, r4, #31
 8001836:	4323      	orrs	r3, r4
 8001838:	0030      	movs	r0, r6
 800183a:	0019      	movs	r1, r3
 800183c:	bd70      	pop	{r4, r5, r6, pc}
 800183e:	380b      	subs	r0, #11
 8001840:	4085      	lsls	r5, r0
 8001842:	032d      	lsls	r5, r5, #12
 8001844:	2600      	movs	r6, #0
 8001846:	0b2d      	lsrs	r5, r5, #12
 8001848:	e7f2      	b.n	8001830 <__aeabi_i2d+0x3c>
 800184a:	46c0      	nop			@ (mov r8, r8)
 800184c:	0000041e 	.word	0x0000041e

08001850 <__clzsi2>:
 8001850:	211c      	movs	r1, #28
 8001852:	2301      	movs	r3, #1
 8001854:	041b      	lsls	r3, r3, #16
 8001856:	4298      	cmp	r0, r3
 8001858:	d301      	bcc.n	800185e <__clzsi2+0xe>
 800185a:	0c00      	lsrs	r0, r0, #16
 800185c:	3910      	subs	r1, #16
 800185e:	0a1b      	lsrs	r3, r3, #8
 8001860:	4298      	cmp	r0, r3
 8001862:	d301      	bcc.n	8001868 <__clzsi2+0x18>
 8001864:	0a00      	lsrs	r0, r0, #8
 8001866:	3908      	subs	r1, #8
 8001868:	091b      	lsrs	r3, r3, #4
 800186a:	4298      	cmp	r0, r3
 800186c:	d301      	bcc.n	8001872 <__clzsi2+0x22>
 800186e:	0900      	lsrs	r0, r0, #4
 8001870:	3904      	subs	r1, #4
 8001872:	a202      	add	r2, pc, #8	@ (adr r2, 800187c <__clzsi2+0x2c>)
 8001874:	5c10      	ldrb	r0, [r2, r0]
 8001876:	1840      	adds	r0, r0, r1
 8001878:	4770      	bx	lr
 800187a:	46c0      	nop			@ (mov r8, r8)
 800187c:	02020304 	.word	0x02020304
 8001880:	01010101 	.word	0x01010101
	...

0800188c <NVIC_EnableIRQ>:
    The interrupt number cannot be a negative value.

    \param [in]      IRQn  Number of the external interrupt to enable
 */
static __INLINE void NVIC_EnableIRQ(IRQn_Type IRQn)
{
 800188c:	b580      	push	{r7, lr}
 800188e:	b082      	sub	sp, #8
 8001890:	af00      	add	r7, sp, #0
 8001892:	0002      	movs	r2, r0
 8001894:	1dfb      	adds	r3, r7, #7
 8001896:	701a      	strb	r2, [r3, #0]
  NVIC->ISER[0] = (1 << ((uint32_t)(IRQn) & 0x1F));
 8001898:	1dfb      	adds	r3, r7, #7
 800189a:	781b      	ldrb	r3, [r3, #0]
 800189c:	001a      	movs	r2, r3
 800189e:	231f      	movs	r3, #31
 80018a0:	4013      	ands	r3, r2
 80018a2:	2201      	movs	r2, #1
 80018a4:	409a      	lsls	r2, r3
 80018a6:	4b03      	ldr	r3, [pc, #12]	@ (80018b4 <NVIC_EnableIRQ+0x28>)
 80018a8:	601a      	str	r2, [r3, #0]
}
 80018aa:	46c0      	nop			@ (mov r8, r8)
 80018ac:	46bd      	mov	sp, r7
 80018ae:	b002      	add	sp, #8
 80018b0:	bd80      	pop	{r7, pc}
 80018b2:	46c0      	nop			@ (mov r8, r8)
 80018b4:	e000e100 	.word	0xe000e100

080018b8 <NVIC_DisableIRQ>:
    The interrupt number cannot be a negative value.

    \param [in]      IRQn  Number of the external interrupt to disable
 */
static __INLINE void NVIC_DisableIRQ(IRQn_Type IRQn)
{
 80018b8:	b580      	push	{r7, lr}
 80018ba:	b082      	sub	sp, #8
 80018bc:	af00      	add	r7, sp, #0
 80018be:	0002      	movs	r2, r0
 80018c0:	1dfb      	adds	r3, r7, #7
 80018c2:	701a      	strb	r2, [r3, #0]
  NVIC->ICER[0] = (1 << ((uint32_t)(IRQn) & 0x1F));
 80018c4:	1dfb      	adds	r3, r7, #7
 80018c6:	781b      	ldrb	r3, [r3, #0]
 80018c8:	001a      	movs	r2, r3
 80018ca:	231f      	movs	r3, #31
 80018cc:	4013      	ands	r3, r2
 80018ce:	2201      	movs	r2, #1
 80018d0:	409a      	lsls	r2, r3
 80018d2:	0013      	movs	r3, r2
 80018d4:	4a03      	ldr	r2, [pc, #12]	@ (80018e4 <NVIC_DisableIRQ+0x2c>)
 80018d6:	0019      	movs	r1, r3
 80018d8:	2380      	movs	r3, #128	@ 0x80
 80018da:	50d1      	str	r1, [r2, r3]
}
 80018dc:	46c0      	nop			@ (mov r8, r8)
 80018de:	46bd      	mov	sp, r7
 80018e0:	b002      	add	sp, #8
 80018e2:	bd80      	pop	{r7, pc}
 80018e4:	e000e100 	.word	0xe000e100

080018e8 <NVIC_SetPriority>:

    \param [in]      IRQn  Number of the interrupt for set priority
    \param [in]  priority  Priority to set
 */
static __INLINE void NVIC_SetPriority(IRQn_Type IRQn, uint32_t priority)
{
 80018e8:	b590      	push	{r4, r7, lr}
 80018ea:	b083      	sub	sp, #12
 80018ec:	af00      	add	r7, sp, #0
 80018ee:	0002      	movs	r2, r0
 80018f0:	6039      	str	r1, [r7, #0]
 80018f2:	1dfb      	adds	r3, r7, #7
 80018f4:	701a      	strb	r2, [r3, #0]
  if(IRQn < 0) {
 80018f6:	1dfb      	adds	r3, r7, #7
 80018f8:	781b      	ldrb	r3, [r3, #0]
 80018fa:	2b7f      	cmp	r3, #127	@ 0x7f
 80018fc:	d932      	bls.n	8001964 <NVIC_SetPriority+0x7c>
    SCB->SHP[_SHP_IDX(IRQn)] = (SCB->SHP[_SHP_IDX(IRQn)] & ~(0xFF << _BIT_SHIFT(IRQn))) |
 80018fe:	4a2f      	ldr	r2, [pc, #188]	@ (80019bc <NVIC_SetPriority+0xd4>)
 8001900:	1dfb      	adds	r3, r7, #7
 8001902:	781b      	ldrb	r3, [r3, #0]
 8001904:	0019      	movs	r1, r3
 8001906:	230f      	movs	r3, #15
 8001908:	400b      	ands	r3, r1
 800190a:	3b08      	subs	r3, #8
 800190c:	089b      	lsrs	r3, r3, #2
 800190e:	3306      	adds	r3, #6
 8001910:	009b      	lsls	r3, r3, #2
 8001912:	18d3      	adds	r3, r2, r3
 8001914:	3304      	adds	r3, #4
 8001916:	681b      	ldr	r3, [r3, #0]
 8001918:	1dfa      	adds	r2, r7, #7
 800191a:	7812      	ldrb	r2, [r2, #0]
 800191c:	0011      	movs	r1, r2
 800191e:	2203      	movs	r2, #3
 8001920:	400a      	ands	r2, r1
 8001922:	00d2      	lsls	r2, r2, #3
 8001924:	21ff      	movs	r1, #255	@ 0xff
 8001926:	4091      	lsls	r1, r2
 8001928:	000a      	movs	r2, r1
 800192a:	43d2      	mvns	r2, r2
 800192c:	401a      	ands	r2, r3
 800192e:	0011      	movs	r1, r2
        (((priority << (8 - __NVIC_PRIO_BITS)) & 0xFF) << _BIT_SHIFT(IRQn)); }
 8001930:	683b      	ldr	r3, [r7, #0]
 8001932:	019b      	lsls	r3, r3, #6
 8001934:	22ff      	movs	r2, #255	@ 0xff
 8001936:	401a      	ands	r2, r3
 8001938:	1dfb      	adds	r3, r7, #7
 800193a:	781b      	ldrb	r3, [r3, #0]
 800193c:	0018      	movs	r0, r3
 800193e:	2303      	movs	r3, #3
 8001940:	4003      	ands	r3, r0
 8001942:	00db      	lsls	r3, r3, #3
 8001944:	409a      	lsls	r2, r3
    SCB->SHP[_SHP_IDX(IRQn)] = (SCB->SHP[_SHP_IDX(IRQn)] & ~(0xFF << _BIT_SHIFT(IRQn))) |
 8001946:	481d      	ldr	r0, [pc, #116]	@ (80019bc <NVIC_SetPriority+0xd4>)
 8001948:	1dfb      	adds	r3, r7, #7
 800194a:	781b      	ldrb	r3, [r3, #0]
 800194c:	001c      	movs	r4, r3
 800194e:	230f      	movs	r3, #15
 8001950:	4023      	ands	r3, r4
 8001952:	3b08      	subs	r3, #8
 8001954:	089b      	lsrs	r3, r3, #2
 8001956:	430a      	orrs	r2, r1
 8001958:	3306      	adds	r3, #6
 800195a:	009b      	lsls	r3, r3, #2
 800195c:	18c3      	adds	r3, r0, r3
 800195e:	3304      	adds	r3, #4
 8001960:	601a      	str	r2, [r3, #0]
  else {
    NVIC->IP[_IP_IDX(IRQn)] = (NVIC->IP[_IP_IDX(IRQn)] & ~(0xFF << _BIT_SHIFT(IRQn))) |
        (((priority << (8 - __NVIC_PRIO_BITS)) & 0xFF) << _BIT_SHIFT(IRQn)); }
}
 8001962:	e027      	b.n	80019b4 <NVIC_SetPriority+0xcc>
    NVIC->IP[_IP_IDX(IRQn)] = (NVIC->IP[_IP_IDX(IRQn)] & ~(0xFF << _BIT_SHIFT(IRQn))) |
 8001964:	4a16      	ldr	r2, [pc, #88]	@ (80019c0 <NVIC_SetPriority+0xd8>)
 8001966:	1dfb      	adds	r3, r7, #7
 8001968:	781b      	ldrb	r3, [r3, #0]
 800196a:	b25b      	sxtb	r3, r3
 800196c:	089b      	lsrs	r3, r3, #2
 800196e:	33c0      	adds	r3, #192	@ 0xc0
 8001970:	009b      	lsls	r3, r3, #2
 8001972:	589b      	ldr	r3, [r3, r2]
 8001974:	1dfa      	adds	r2, r7, #7
 8001976:	7812      	ldrb	r2, [r2, #0]
 8001978:	0011      	movs	r1, r2
 800197a:	2203      	movs	r2, #3
 800197c:	400a      	ands	r2, r1
 800197e:	00d2      	lsls	r2, r2, #3
 8001980:	21ff      	movs	r1, #255	@ 0xff
 8001982:	4091      	lsls	r1, r2
 8001984:	000a      	movs	r2, r1
 8001986:	43d2      	mvns	r2, r2
 8001988:	401a      	ands	r2, r3
 800198a:	0011      	movs	r1, r2
        (((priority << (8 - __NVIC_PRIO_BITS)) & 0xFF) << _BIT_SHIFT(IRQn)); }
 800198c:	683b      	ldr	r3, [r7, #0]
 800198e:	019b      	lsls	r3, r3, #6
 8001990:	22ff      	movs	r2, #255	@ 0xff
 8001992:	401a      	ands	r2, r3
 8001994:	1dfb      	adds	r3, r7, #7
 8001996:	781b      	ldrb	r3, [r3, #0]
 8001998:	0018      	movs	r0, r3
 800199a:	2303      	movs	r3, #3
 800199c:	4003      	ands	r3, r0
 800199e:	00db      	lsls	r3, r3, #3
 80019a0:	409a      	lsls	r2, r3
    NVIC->IP[_IP_IDX(IRQn)] = (NVIC->IP[_IP_IDX(IRQn)] & ~(0xFF << _BIT_SHIFT(IRQn))) |
 80019a2:	4807      	ldr	r0, [pc, #28]	@ (80019c0 <NVIC_SetPriority+0xd8>)
 80019a4:	1dfb      	adds	r3, r7, #7
 80019a6:	781b      	ldrb	r3, [r3, #0]
 80019a8:	b25b      	sxtb	r3, r3
 80019aa:	089b      	lsrs	r3, r3, #2
 80019ac:	430a      	orrs	r2, r1
 80019ae:	33c0      	adds	r3, #192	@ 0xc0
 80019b0:	009b      	lsls	r3, r3, #2
 80019b2:	501a      	str	r2, [r3, r0]
}
 80019b4:	46c0      	nop			@ (mov r8, r8)
 80019b6:	46bd      	mov	sp, r7
 80019b8:	b003      	add	sp, #12
 80019ba:	bd90      	pop	{r4, r7, pc}
 80019bc:	e000ed00 	.word	0xe000ed00
 80019c0:	e000e100 	.word	0xe000e100

080019c4 <ZeroCrossingInit>:

void delay_ms(uint32_t);
void delay_us(uint32_t);

void ZeroCrossingInit(void)
{
 80019c4:	b580      	push	{r7, lr}
 80019c6:	af00      	add	r7, sp, #0
	RCC->AHBENR |=(1<<19);		//Habilita reloj PORTC
 80019c8:	4b1d      	ldr	r3, [pc, #116]	@ (8001a40 <ZeroCrossingInit+0x7c>)
 80019ca:	695a      	ldr	r2, [r3, #20]
 80019cc:	4b1c      	ldr	r3, [pc, #112]	@ (8001a40 <ZeroCrossingInit+0x7c>)
 80019ce:	2180      	movs	r1, #128	@ 0x80
 80019d0:	0309      	lsls	r1, r1, #12
 80019d2:	430a      	orrs	r2, r1
 80019d4:	615a      	str	r2, [r3, #20]
	GPIOC->MODER |=(1<<18);
 80019d6:	4b1b      	ldr	r3, [pc, #108]	@ (8001a44 <ZeroCrossingInit+0x80>)
 80019d8:	681a      	ldr	r2, [r3, #0]
 80019da:	4b1a      	ldr	r3, [pc, #104]	@ (8001a44 <ZeroCrossingInit+0x80>)
 80019dc:	2180      	movs	r1, #128	@ 0x80
 80019de:	02c9      	lsls	r1, r1, #11
 80019e0:	430a      	orrs	r2, r1
 80019e2:	601a      	str	r2, [r3, #0]

	RCC->APB2ENR |= RCC_APB2ENR_SYSCFGEN; // Enable SYSCFG clock
 80019e4:	4b16      	ldr	r3, [pc, #88]	@ (8001a40 <ZeroCrossingInit+0x7c>)
 80019e6:	699a      	ldr	r2, [r3, #24]
 80019e8:	4b15      	ldr	r3, [pc, #84]	@ (8001a40 <ZeroCrossingInit+0x7c>)
 80019ea:	2101      	movs	r1, #1
 80019ec:	430a      	orrs	r2, r1
 80019ee:	619a      	str	r2, [r3, #24]
    GPIOA->MODER &= ~(1<<0);    //PA0 as digital input
 80019f0:	2390      	movs	r3, #144	@ 0x90
 80019f2:	05db      	lsls	r3, r3, #23
 80019f4:	681a      	ldr	r2, [r3, #0]
 80019f6:	2390      	movs	r3, #144	@ 0x90
 80019f8:	05db      	lsls	r3, r3, #23
 80019fa:	2101      	movs	r1, #1
 80019fc:	438a      	bics	r2, r1
 80019fe:	601a      	str	r2, [r3, #0]
    SYSCFG->EXTICR[0] &= ~(SYSCFG_EXTICR1_EXTI0); // Clear EXTI0 configuration
 8001a00:	4b11      	ldr	r3, [pc, #68]	@ (8001a48 <ZeroCrossingInit+0x84>)
 8001a02:	689a      	ldr	r2, [r3, #8]
 8001a04:	4b10      	ldr	r3, [pc, #64]	@ (8001a48 <ZeroCrossingInit+0x84>)
 8001a06:	210f      	movs	r1, #15
 8001a08:	438a      	bics	r2, r1
 8001a0a:	609a      	str	r2, [r3, #8]
    SYSCFG->EXTICR[0] |= (SYSCFG_EXTICR1_EXTI0_PA); // Select PA0 for EXTI0
 8001a0c:	4a0e      	ldr	r2, [pc, #56]	@ (8001a48 <ZeroCrossingInit+0x84>)
 8001a0e:	4b0e      	ldr	r3, [pc, #56]	@ (8001a48 <ZeroCrossingInit+0x84>)
 8001a10:	6892      	ldr	r2, [r2, #8]
 8001a12:	609a      	str	r2, [r3, #8]

    EXTI->IMR |= EXTI_IMR_MR0; // Unmask EXTI0
 8001a14:	4b0d      	ldr	r3, [pc, #52]	@ (8001a4c <ZeroCrossingInit+0x88>)
 8001a16:	681a      	ldr	r2, [r3, #0]
 8001a18:	4b0c      	ldr	r3, [pc, #48]	@ (8001a4c <ZeroCrossingInit+0x88>)
 8001a1a:	2101      	movs	r1, #1
 8001a1c:	430a      	orrs	r2, r1
 8001a1e:	601a      	str	r2, [r3, #0]
    EXTI->FTSR |= (EXTI_FTSR_TR0); // Trigger on falling edge
 8001a20:	4b0a      	ldr	r3, [pc, #40]	@ (8001a4c <ZeroCrossingInit+0x88>)
 8001a22:	68da      	ldr	r2, [r3, #12]
 8001a24:	4b09      	ldr	r3, [pc, #36]	@ (8001a4c <ZeroCrossingInit+0x88>)
 8001a26:	2101      	movs	r1, #1
 8001a28:	430a      	orrs	r2, r1
 8001a2a:	60da      	str	r2, [r3, #12]

    NVIC_SetPriority(EXTI0_1_IRQn, 1); // Highest priority
 8001a2c:	2101      	movs	r1, #1
 8001a2e:	2005      	movs	r0, #5
 8001a30:	f7ff ff5a 	bl	80018e8 <NVIC_SetPriority>
    NVIC_EnableIRQ(EXTI0_1_IRQn);
 8001a34:	2005      	movs	r0, #5
 8001a36:	f7ff ff29 	bl	800188c <NVIC_EnableIRQ>
}
 8001a3a:	46c0      	nop			@ (mov r8, r8)
 8001a3c:	46bd      	mov	sp, r7
 8001a3e:	bd80      	pop	{r7, pc}
 8001a40:	40021000 	.word	0x40021000
 8001a44:	48000800 	.word	0x48000800
 8001a48:	40010000 	.word	0x40010000
 8001a4c:	40010400 	.word	0x40010400

08001a50 <FanConveyorCtrlInit>:

void FanConveyorCtrlInit(void){
 8001a50:	b580      	push	{r7, lr}
 8001a52:	af00      	add	r7, sp, #0

	GPIOC->MODER |=(1<<16);
 8001a54:	4b0b      	ldr	r3, [pc, #44]	@ (8001a84 <FanConveyorCtrlInit+0x34>)
 8001a56:	681a      	ldr	r2, [r3, #0]
 8001a58:	4b0a      	ldr	r3, [pc, #40]	@ (8001a84 <FanConveyorCtrlInit+0x34>)
 8001a5a:	2180      	movs	r1, #128	@ 0x80
 8001a5c:	0249      	lsls	r1, r1, #9
 8001a5e:	430a      	orrs	r2, r1
 8001a60:	601a      	str	r2, [r3, #0]
	GPIOC->MODER |=(1<<14);
 8001a62:	4b08      	ldr	r3, [pc, #32]	@ (8001a84 <FanConveyorCtrlInit+0x34>)
 8001a64:	681a      	ldr	r2, [r3, #0]
 8001a66:	4b07      	ldr	r3, [pc, #28]	@ (8001a84 <FanConveyorCtrlInit+0x34>)
 8001a68:	2180      	movs	r1, #128	@ 0x80
 8001a6a:	01c9      	lsls	r1, r1, #7
 8001a6c:	430a      	orrs	r2, r1
 8001a6e:	601a      	str	r2, [r3, #0]
	GPIOC->MODER |=(1<<12);
 8001a70:	4b04      	ldr	r3, [pc, #16]	@ (8001a84 <FanConveyorCtrlInit+0x34>)
 8001a72:	681a      	ldr	r2, [r3, #0]
 8001a74:	4b03      	ldr	r3, [pc, #12]	@ (8001a84 <FanConveyorCtrlInit+0x34>)
 8001a76:	2180      	movs	r1, #128	@ 0x80
 8001a78:	0149      	lsls	r1, r1, #5
 8001a7a:	430a      	orrs	r2, r1
 8001a7c:	601a      	str	r2, [r3, #0]
}
 8001a7e:	46c0      	nop			@ (mov r8, r8)
 8001a80:	46bd      	mov	sp, r7
 8001a82:	bd80      	pop	{r7, pc}
 8001a84:	48000800 	.word	0x48000800

08001a88 <PID>:

void PID(void){
 8001a88:	b5b0      	push	{r4, r5, r7, lr}
 8001a8a:	b082      	sub	sp, #8
 8001a8c:	af00      	add	r7, sp, #0
	//e = external_humidity /10 - internal_temperature; //change for internal_temperature_dashboard
	e = internal_temperature_dashboard - internal_temperature;
 8001a8e:	4b34      	ldr	r3, [pc, #208]	@ (8001b60 <PID+0xd8>)
 8001a90:	681a      	ldr	r2, [r3, #0]
 8001a92:	4b34      	ldr	r3, [pc, #208]	@ (8001b64 <PID+0xdc>)
 8001a94:	681b      	ldr	r3, [r3, #0]
 8001a96:	1ad2      	subs	r2, r2, r3
 8001a98:	4b33      	ldr	r3, [pc, #204]	@ (8001b68 <PID+0xe0>)
 8001a9a:	601a      	str	r2, [r3, #0]
	ei = ei + e * 0.01;
 8001a9c:	4b33      	ldr	r3, [pc, #204]	@ (8001b6c <PID+0xe4>)
 8001a9e:	681b      	ldr	r3, [r3, #0]
 8001aa0:	0018      	movs	r0, r3
 8001aa2:	f7ff fea7 	bl	80017f4 <__aeabi_i2d>
 8001aa6:	0004      	movs	r4, r0
 8001aa8:	000d      	movs	r5, r1
 8001aaa:	4b2f      	ldr	r3, [pc, #188]	@ (8001b68 <PID+0xe0>)
 8001aac:	681b      	ldr	r3, [r3, #0]
 8001aae:	0018      	movs	r0, r3
 8001ab0:	f7ff fea0 	bl	80017f4 <__aeabi_i2d>
 8001ab4:	4a2e      	ldr	r2, [pc, #184]	@ (8001b70 <PID+0xe8>)
 8001ab6:	4b2f      	ldr	r3, [pc, #188]	@ (8001b74 <PID+0xec>)
 8001ab8:	f7ff fb98 	bl	80011ec <__aeabi_dmul>
 8001abc:	0002      	movs	r2, r0
 8001abe:	000b      	movs	r3, r1
 8001ac0:	0020      	movs	r0, r4
 8001ac2:	0029      	movs	r1, r5
 8001ac4:	f7fe fd14 	bl	80004f0 <__aeabi_dadd>
 8001ac8:	0002      	movs	r2, r0
 8001aca:	000b      	movs	r3, r1
 8001acc:	0010      	movs	r0, r2
 8001ace:	0019      	movs	r1, r3
 8001ad0:	f7ff fe54 	bl	800177c <__aeabi_d2iz>
 8001ad4:	0002      	movs	r2, r0
 8001ad6:	4b25      	ldr	r3, [pc, #148]	@ (8001b6c <PID+0xe4>)
 8001ad8:	601a      	str	r2, [r3, #0]
	ed = (e - e1)/0.01;
 8001ada:	4b23      	ldr	r3, [pc, #140]	@ (8001b68 <PID+0xe0>)
 8001adc:	681a      	ldr	r2, [r3, #0]
 8001ade:	4b26      	ldr	r3, [pc, #152]	@ (8001b78 <PID+0xf0>)
 8001ae0:	681b      	ldr	r3, [r3, #0]
 8001ae2:	1ad3      	subs	r3, r2, r3
 8001ae4:	0018      	movs	r0, r3
 8001ae6:	f7ff fe85 	bl	80017f4 <__aeabi_i2d>
 8001aea:	4a21      	ldr	r2, [pc, #132]	@ (8001b70 <PID+0xe8>)
 8001aec:	4b21      	ldr	r3, [pc, #132]	@ (8001b74 <PID+0xec>)
 8001aee:	f7ff f863 	bl	8000bb8 <__aeabi_ddiv>
 8001af2:	0002      	movs	r2, r0
 8001af4:	000b      	movs	r3, r1
 8001af6:	0010      	movs	r0, r2
 8001af8:	0019      	movs	r1, r3
 8001afa:	f7ff fe3f 	bl	800177c <__aeabi_d2iz>
 8001afe:	0002      	movs	r2, r0
 8001b00:	4b1e      	ldr	r3, [pc, #120]	@ (8001b7c <PID+0xf4>)
 8001b02:	601a      	str	r2, [r3, #0]
	e1 = e;
 8001b04:	4b18      	ldr	r3, [pc, #96]	@ (8001b68 <PID+0xe0>)
 8001b06:	681a      	ldr	r2, [r3, #0]
 8001b08:	4b1b      	ldr	r3, [pc, #108]	@ (8001b78 <PID+0xf0>)
 8001b0a:	601a      	str	r2, [r3, #0]
	int m = P * (e + 0*ei + 0*ed); //integral and derivate gains are 0 @ the moment
 8001b0c:	4b17      	ldr	r3, [pc, #92]	@ (8001b6c <PID+0xe4>)
 8001b0e:	681b      	ldr	r3, [r3, #0]
 8001b10:	4b1a      	ldr	r3, [pc, #104]	@ (8001b7c <PID+0xf4>)
 8001b12:	681b      	ldr	r3, [r3, #0]
 8001b14:	4b14      	ldr	r3, [pc, #80]	@ (8001b68 <PID+0xe0>)
 8001b16:	681a      	ldr	r2, [r3, #0]
 8001b18:	4b19      	ldr	r3, [pc, #100]	@ (8001b80 <PID+0xf8>)
 8001b1a:	681b      	ldr	r3, [r3, #0]
 8001b1c:	4353      	muls	r3, r2
 8001b1e:	607b      	str	r3, [r7, #4]

	t -=m;
 8001b20:	4b18      	ldr	r3, [pc, #96]	@ (8001b84 <PID+0xfc>)
 8001b22:	681a      	ldr	r2, [r3, #0]
 8001b24:	687b      	ldr	r3, [r7, #4]
 8001b26:	1ad2      	subs	r2, r2, r3
 8001b28:	4b16      	ldr	r3, [pc, #88]	@ (8001b84 <PID+0xfc>)
 8001b2a:	601a      	str	r2, [r3, #0]
	//t -=7800;
	if (t>pid_upper_limit){
 8001b2c:	4b15      	ldr	r3, [pc, #84]	@ (8001b84 <PID+0xfc>)
 8001b2e:	681a      	ldr	r2, [r3, #0]
 8001b30:	4b15      	ldr	r3, [pc, #84]	@ (8001b88 <PID+0x100>)
 8001b32:	681b      	ldr	r3, [r3, #0]
 8001b34:	429a      	cmp	r2, r3
 8001b36:	dd04      	ble.n	8001b42 <PID+0xba>
		t = pid_upper_limit;
 8001b38:	4b13      	ldr	r3, [pc, #76]	@ (8001b88 <PID+0x100>)
 8001b3a:	681a      	ldr	r2, [r3, #0]
 8001b3c:	4b11      	ldr	r3, [pc, #68]	@ (8001b84 <PID+0xfc>)
 8001b3e:	601a      	str	r2, [r3, #0]
	}
	else if (t<pid_lower_limit)
	{
		t = pid_lower_limit;
	}
}
 8001b40:	e009      	b.n	8001b56 <PID+0xce>
	else if (t<pid_lower_limit)
 8001b42:	4b10      	ldr	r3, [pc, #64]	@ (8001b84 <PID+0xfc>)
 8001b44:	681a      	ldr	r2, [r3, #0]
 8001b46:	4b11      	ldr	r3, [pc, #68]	@ (8001b8c <PID+0x104>)
 8001b48:	681b      	ldr	r3, [r3, #0]
 8001b4a:	429a      	cmp	r2, r3
 8001b4c:	da03      	bge.n	8001b56 <PID+0xce>
		t = pid_lower_limit;
 8001b4e:	4b0f      	ldr	r3, [pc, #60]	@ (8001b8c <PID+0x104>)
 8001b50:	681a      	ldr	r2, [r3, #0]
 8001b52:	4b0c      	ldr	r3, [pc, #48]	@ (8001b84 <PID+0xfc>)
 8001b54:	601a      	str	r2, [r3, #0]
}
 8001b56:	46c0      	nop			@ (mov r8, r8)
 8001b58:	46bd      	mov	sp, r7
 8001b5a:	b002      	add	sp, #8
 8001b5c:	bdb0      	pop	{r4, r5, r7, pc}
 8001b5e:	46c0      	nop			@ (mov r8, r8)
 8001b60:	2000007c 	.word	0x2000007c
 8001b64:	20000078 	.word	0x20000078
 8001b68:	20000088 	.word	0x20000088
 8001b6c:	20000090 	.word	0x20000090
 8001b70:	47ae147b 	.word	0x47ae147b
 8001b74:	3f847ae1 	.word	0x3f847ae1
 8001b78:	2000008c 	.word	0x2000008c
 8001b7c:	20000094 	.word	0x20000094
 8001b80:	20000000 	.word	0x20000000
 8001b84:	20000098 	.word	0x20000098
 8001b88:	20000004 	.word	0x20000004
 8001b8c:	20000008 	.word	0x20000008

08001b90 <delay_us>:
    TIM2->SR &= ~TIM_SR_UIF; // Clear update interrupt flag
    TIM2->CR1 &= ~TIM_CR1_CEN; // Disable counter
    RCC->APB1ENR &= ~RCC_APB1ENR_TIM2EN; // Disable TIM clock
}

void delay_us(uint32_t us) {
 8001b90:	b580      	push	{r7, lr}
 8001b92:	b082      	sub	sp, #8
 8001b94:	af00      	add	r7, sp, #0
 8001b96:	6078      	str	r0, [r7, #4]
    // Configure TIM2 for microsecond delay
    RCC->APB1ENR |= RCC_APB1ENR_TIM2EN; // Enable TIM clock
 8001b98:	4b21      	ldr	r3, [pc, #132]	@ (8001c20 <delay_us+0x90>)
 8001b9a:	69da      	ldr	r2, [r3, #28]
 8001b9c:	4b20      	ldr	r3, [pc, #128]	@ (8001c20 <delay_us+0x90>)
 8001b9e:	2101      	movs	r1, #1
 8001ba0:	430a      	orrs	r2, r1
 8001ba2:	61da      	str	r2, [r3, #28]
    TIM2->PSC = 8 - 1; // Prescaler for 1us tick
 8001ba4:	2380      	movs	r3, #128	@ 0x80
 8001ba6:	05db      	lsls	r3, r3, #23
 8001ba8:	2207      	movs	r2, #7
 8001baa:	851a      	strh	r2, [r3, #40]	@ 0x28
    TIM2->ARR = us; // Auto-reload value
 8001bac:	2380      	movs	r3, #128	@ 0x80
 8001bae:	05db      	lsls	r3, r3, #23
 8001bb0:	687a      	ldr	r2, [r7, #4]
 8001bb2:	62da      	str	r2, [r3, #44]	@ 0x2c
    TIM2->CNT = 0; // Restart counter
 8001bb4:	2380      	movs	r3, #128	@ 0x80
 8001bb6:	05db      	lsls	r3, r3, #23
 8001bb8:	2200      	movs	r2, #0
 8001bba:	625a      	str	r2, [r3, #36]	@ 0x24
    TIM2->CR1 |= TIM_CR1_CEN; // Enable counter
 8001bbc:	2380      	movs	r3, #128	@ 0x80
 8001bbe:	05db      	lsls	r3, r3, #23
 8001bc0:	881b      	ldrh	r3, [r3, #0]
 8001bc2:	b29a      	uxth	r2, r3
 8001bc4:	2380      	movs	r3, #128	@ 0x80
 8001bc6:	05db      	lsls	r3, r3, #23
 8001bc8:	2101      	movs	r1, #1
 8001bca:	430a      	orrs	r2, r1
 8001bcc:	b292      	uxth	r2, r2
 8001bce:	801a      	strh	r2, [r3, #0]
    while (!(TIM2->SR & TIM_SR_UIF)); // Wait for update interrupt flag
 8001bd0:	46c0      	nop			@ (mov r8, r8)
 8001bd2:	2380      	movs	r3, #128	@ 0x80
 8001bd4:	05db      	lsls	r3, r3, #23
 8001bd6:	8a1b      	ldrh	r3, [r3, #16]
 8001bd8:	b29b      	uxth	r3, r3
 8001bda:	001a      	movs	r2, r3
 8001bdc:	2301      	movs	r3, #1
 8001bde:	4013      	ands	r3, r2
 8001be0:	d0f7      	beq.n	8001bd2 <delay_us+0x42>
    TIM2->SR &= ~TIM_SR_UIF; // Clear update interrupt flag
 8001be2:	2380      	movs	r3, #128	@ 0x80
 8001be4:	05db      	lsls	r3, r3, #23
 8001be6:	8a1b      	ldrh	r3, [r3, #16]
 8001be8:	b29a      	uxth	r2, r3
 8001bea:	2380      	movs	r3, #128	@ 0x80
 8001bec:	05db      	lsls	r3, r3, #23
 8001bee:	2101      	movs	r1, #1
 8001bf0:	438a      	bics	r2, r1
 8001bf2:	b292      	uxth	r2, r2
 8001bf4:	821a      	strh	r2, [r3, #16]
    TIM2->CR1 &= ~TIM_CR1_CEN; // Disable counter
 8001bf6:	2380      	movs	r3, #128	@ 0x80
 8001bf8:	05db      	lsls	r3, r3, #23
 8001bfa:	881b      	ldrh	r3, [r3, #0]
 8001bfc:	b29a      	uxth	r2, r3
 8001bfe:	2380      	movs	r3, #128	@ 0x80
 8001c00:	05db      	lsls	r3, r3, #23
 8001c02:	2101      	movs	r1, #1
 8001c04:	438a      	bics	r2, r1
 8001c06:	b292      	uxth	r2, r2
 8001c08:	801a      	strh	r2, [r3, #0]
    RCC->APB1ENR &= ~RCC_APB1ENR_TIM2EN; // Disable TIM clock
 8001c0a:	4b05      	ldr	r3, [pc, #20]	@ (8001c20 <delay_us+0x90>)
 8001c0c:	69da      	ldr	r2, [r3, #28]
 8001c0e:	4b04      	ldr	r3, [pc, #16]	@ (8001c20 <delay_us+0x90>)
 8001c10:	2101      	movs	r1, #1
 8001c12:	438a      	bics	r2, r1
 8001c14:	61da      	str	r2, [r3, #28]
}
 8001c16:	46c0      	nop			@ (mov r8, r8)
 8001c18:	46bd      	mov	sp, r7
 8001c1a:	b002      	add	sp, #8
 8001c1c:	bd80      	pop	{r7, pc}
 8001c1e:	46c0      	nop			@ (mov r8, r8)
 8001c20:	40021000 	.word	0x40021000

08001c24 <TurnOnHeat>:

void TurnOnHeat(int t){
 8001c24:	b580      	push	{r7, lr}
 8001c26:	b082      	sub	sp, #8
 8001c28:	af00      	add	r7, sp, #0
 8001c2a:	6078      	str	r0, [r7, #4]
    RCC->APB1ENR |= RCC_APB1ENR_TIM3EN; // Enable TIM3 clock
 8001c2c:	4b14      	ldr	r3, [pc, #80]	@ (8001c80 <TurnOnHeat+0x5c>)
 8001c2e:	69da      	ldr	r2, [r3, #28]
 8001c30:	4b13      	ldr	r3, [pc, #76]	@ (8001c80 <TurnOnHeat+0x5c>)
 8001c32:	2102      	movs	r1, #2
 8001c34:	430a      	orrs	r2, r1
 8001c36:	61da      	str	r2, [r3, #28]
    TIM3->PSC = 8 - 1; // Prescaler for 1us tick
 8001c38:	4b12      	ldr	r3, [pc, #72]	@ (8001c84 <TurnOnHeat+0x60>)
 8001c3a:	2207      	movs	r2, #7
 8001c3c:	851a      	strh	r2, [r3, #40]	@ 0x28
    TIM3->ARR = t; // Auto-reload value
 8001c3e:	4b11      	ldr	r3, [pc, #68]	@ (8001c84 <TurnOnHeat+0x60>)
 8001c40:	687a      	ldr	r2, [r7, #4]
 8001c42:	62da      	str	r2, [r3, #44]	@ 0x2c
    TIM3->CNT = 0; // Restart counter
 8001c44:	4b0f      	ldr	r3, [pc, #60]	@ (8001c84 <TurnOnHeat+0x60>)
 8001c46:	2200      	movs	r2, #0
 8001c48:	625a      	str	r2, [r3, #36]	@ 0x24
    TIM3->DIER |= TIM_DIER_UIE; // Enable update interrupt
 8001c4a:	4b0e      	ldr	r3, [pc, #56]	@ (8001c84 <TurnOnHeat+0x60>)
 8001c4c:	899b      	ldrh	r3, [r3, #12]
 8001c4e:	b29b      	uxth	r3, r3
 8001c50:	4a0c      	ldr	r2, [pc, #48]	@ (8001c84 <TurnOnHeat+0x60>)
 8001c52:	2101      	movs	r1, #1
 8001c54:	430b      	orrs	r3, r1
 8001c56:	b29b      	uxth	r3, r3
 8001c58:	8193      	strh	r3, [r2, #12]
    NVIC_SetPriority(TIM3_IRQn, 0);  // Set priority for TIM3 interrupt
 8001c5a:	2100      	movs	r1, #0
 8001c5c:	2010      	movs	r0, #16
 8001c5e:	f7ff fe43 	bl	80018e8 <NVIC_SetPriority>
    NVIC_EnableIRQ(TIM3_IRQn);       // Enable TIM3 interrupt in NVIC
 8001c62:	2010      	movs	r0, #16
 8001c64:	f7ff fe12 	bl	800188c <NVIC_EnableIRQ>
    TIM3->CR1 |= TIM_CR1_CEN; // Enable counter
 8001c68:	4b06      	ldr	r3, [pc, #24]	@ (8001c84 <TurnOnHeat+0x60>)
 8001c6a:	881b      	ldrh	r3, [r3, #0]
 8001c6c:	b29b      	uxth	r3, r3
 8001c6e:	4a05      	ldr	r2, [pc, #20]	@ (8001c84 <TurnOnHeat+0x60>)
 8001c70:	2101      	movs	r1, #1
 8001c72:	430b      	orrs	r3, r1
 8001c74:	b29b      	uxth	r3, r3
 8001c76:	8013      	strh	r3, [r2, #0]
    //GPIOC->ODR &= ~ (1<<8); // Set PC8 high
}
 8001c78:	46c0      	nop			@ (mov r8, r8)
 8001c7a:	46bd      	mov	sp, r7
 8001c7c:	b002      	add	sp, #8
 8001c7e:	bd80      	pop	{r7, pc}
 8001c80:	40021000 	.word	0x40021000
 8001c84:	40000400 	.word	0x40000400

08001c88 <TIM3_IRQHandler>:

void TIM3_IRQHandler(void){
 8001c88:	b580      	push	{r7, lr}
 8001c8a:	af00      	add	r7, sp, #0
	if (TIM3->SR & TIM_SR_UIF) // Check if update interrupt flag is set
 8001c8c:	4b19      	ldr	r3, [pc, #100]	@ (8001cf4 <TIM3_IRQHandler+0x6c>)
 8001c8e:	8a1b      	ldrh	r3, [r3, #16]
 8001c90:	b29b      	uxth	r3, r3
 8001c92:	001a      	movs	r2, r3
 8001c94:	2301      	movs	r3, #1
 8001c96:	4013      	ands	r3, r2
 8001c98:	d029      	beq.n	8001cee <TIM3_IRQHandler+0x66>
	  {
		GPIOC->ODR |= (1<<8);
 8001c9a:	4b17      	ldr	r3, [pc, #92]	@ (8001cf8 <TIM3_IRQHandler+0x70>)
 8001c9c:	8a9b      	ldrh	r3, [r3, #20]
 8001c9e:	b29b      	uxth	r3, r3
 8001ca0:	4915      	ldr	r1, [pc, #84]	@ (8001cf8 <TIM3_IRQHandler+0x70>)
 8001ca2:	2280      	movs	r2, #128	@ 0x80
 8001ca4:	0052      	lsls	r2, r2, #1
 8001ca6:	4313      	orrs	r3, r2
 8001ca8:	b29b      	uxth	r3, r3
 8001caa:	828b      	strh	r3, [r1, #20]
		TIM3->SR &= ~TIM_SR_UIF;
 8001cac:	4b11      	ldr	r3, [pc, #68]	@ (8001cf4 <TIM3_IRQHandler+0x6c>)
 8001cae:	8a1b      	ldrh	r3, [r3, #16]
 8001cb0:	b29b      	uxth	r3, r3
 8001cb2:	4a10      	ldr	r2, [pc, #64]	@ (8001cf4 <TIM3_IRQHandler+0x6c>)
 8001cb4:	2101      	movs	r1, #1
 8001cb6:	438b      	bics	r3, r1
 8001cb8:	b29b      	uxth	r3, r3
 8001cba:	8213      	strh	r3, [r2, #16]
	    TIM3->CR1 &= ~TIM_CR1_CEN; // Disable counter
 8001cbc:	4b0d      	ldr	r3, [pc, #52]	@ (8001cf4 <TIM3_IRQHandler+0x6c>)
 8001cbe:	881b      	ldrh	r3, [r3, #0]
 8001cc0:	b29b      	uxth	r3, r3
 8001cc2:	4a0c      	ldr	r2, [pc, #48]	@ (8001cf4 <TIM3_IRQHandler+0x6c>)
 8001cc4:	2101      	movs	r1, #1
 8001cc6:	438b      	bics	r3, r1
 8001cc8:	b29b      	uxth	r3, r3
 8001cca:	8013      	strh	r3, [r2, #0]
	    RCC->APB1ENR &= ~RCC_APB1ENR_TIM3EN; // Disable TIM clock
 8001ccc:	4b0b      	ldr	r3, [pc, #44]	@ (8001cfc <TIM3_IRQHandler+0x74>)
 8001cce:	69da      	ldr	r2, [r3, #28]
 8001cd0:	4b0a      	ldr	r3, [pc, #40]	@ (8001cfc <TIM3_IRQHandler+0x74>)
 8001cd2:	2102      	movs	r1, #2
 8001cd4:	438a      	bics	r2, r1
 8001cd6:	61da      	str	r2, [r3, #28]
	    NVIC_DisableIRQ(TIM3_IRQn);
 8001cd8:	2010      	movs	r0, #16
 8001cda:	f7ff fded 	bl	80018b8 <NVIC_DisableIRQ>
	    GPIOC->ODR &= ~ (1<<8);
 8001cde:	4b06      	ldr	r3, [pc, #24]	@ (8001cf8 <TIM3_IRQHandler+0x70>)
 8001ce0:	8a9b      	ldrh	r3, [r3, #20]
 8001ce2:	b29b      	uxth	r3, r3
 8001ce4:	4a04      	ldr	r2, [pc, #16]	@ (8001cf8 <TIM3_IRQHandler+0x70>)
 8001ce6:	4906      	ldr	r1, [pc, #24]	@ (8001d00 <TIM3_IRQHandler+0x78>)
 8001ce8:	400b      	ands	r3, r1
 8001cea:	b29b      	uxth	r3, r3
 8001cec:	8293      	strh	r3, [r2, #20]
	  }
}
 8001cee:	46c0      	nop			@ (mov r8, r8)
 8001cf0:	46bd      	mov	sp, r7
 8001cf2:	bd80      	pop	{r7, pc}
 8001cf4:	40000400 	.word	0x40000400
 8001cf8:	48000800 	.word	0x48000800
 8001cfc:	40021000 	.word	0x40021000
 8001d00:	fffffeff 	.word	0xfffffeff

08001d04 <EXTI0_1_IRQHandler>:



void EXTI0_1_IRQHandler(void)
{
 8001d04:	b580      	push	{r7, lr}
 8001d06:	af00      	add	r7, sp, #0
    if (EXTI->PR & EXTI_PR_PR0) // Check if EXTI0 interrupt is pending
 8001d08:	4b0b      	ldr	r3, [pc, #44]	@ (8001d38 <EXTI0_1_IRQHandler+0x34>)
 8001d0a:	695b      	ldr	r3, [r3, #20]
 8001d0c:	2201      	movs	r2, #1
 8001d0e:	4013      	ands	r3, r2
 8001d10:	d00e      	beq.n	8001d30 <EXTI0_1_IRQHandler+0x2c>
    {
        EXTI->PR = EXTI_PR_PR0; // Clear the interrupt flag by writing 1
 8001d12:	4b09      	ldr	r3, [pc, #36]	@ (8001d38 <EXTI0_1_IRQHandler+0x34>)
 8001d14:	2201      	movs	r2, #1
 8001d16:	615a      	str	r2, [r3, #20]

        PID();
 8001d18:	f7ff feb6 	bl	8001a88 <PID>
        temp_t++;
 8001d1c:	4b07      	ldr	r3, [pc, #28]	@ (8001d3c <EXTI0_1_IRQHandler+0x38>)
 8001d1e:	681b      	ldr	r3, [r3, #0]
 8001d20:	1c5a      	adds	r2, r3, #1
 8001d22:	4b06      	ldr	r3, [pc, #24]	@ (8001d3c <EXTI0_1_IRQHandler+0x38>)
 8001d24:	601a      	str	r2, [r3, #0]
        GPIOC->ODR |= (1<<8);
        //ConveyorON();
        delay_us(30);
        GPIOC->ODR &= ~ (1<<8);
        */
        TurnOnHeat(t);
 8001d26:	4b06      	ldr	r3, [pc, #24]	@ (8001d40 <EXTI0_1_IRQHandler+0x3c>)
 8001d28:	681b      	ldr	r3, [r3, #0]
 8001d2a:	0018      	movs	r0, r3
 8001d2c:	f7ff ff7a 	bl	8001c24 <TurnOnHeat>

        // Control the conveyor and fan
        //ConveyorControl();
        //FanControl();
    }
}
 8001d30:	46c0      	nop			@ (mov r8, r8)
 8001d32:	46bd      	mov	sp, r7
 8001d34:	bd80      	pop	{r7, pc}
 8001d36:	46c0      	nop			@ (mov r8, r8)
 8001d38:	40010400 	.word	0x40010400
 8001d3c:	200000b0 	.word	0x200000b0
 8001d40:	20000098 	.word	0x20000098

08001d44 <ReadByte>:



uint8_t ReadByte(void) {
 8001d44:	b580      	push	{r7, lr}
 8001d46:	b084      	sub	sp, #16
 8001d48:	af00      	add	r7, sp, #0
    uint8_t result = 0;
 8001d4a:	230f      	movs	r3, #15
 8001d4c:	18fb      	adds	r3, r7, r3
 8001d4e:	2200      	movs	r2, #0
 8001d50:	701a      	strb	r2, [r3, #0]
    for (int i = 0; i < 8; i++) {
 8001d52:	2300      	movs	r3, #0
 8001d54:	60bb      	str	r3, [r7, #8]
 8001d56:	e042      	b.n	8001dde <ReadByte+0x9a>
    	uint32_t timeout=0;
 8001d58:	2300      	movs	r3, #0
 8001d5a:	607b      	str	r3, [r7, #4]
        // Wait for the start of the bit
        while (!(GPIOA->IDR & GPIO_IDR_2)) { // Wait while pin is low
 8001d5c:	e007      	b.n	8001d6e <ReadByte+0x2a>
            if (timeout++ > MAX_TIMEOUT) {
 8001d5e:	687b      	ldr	r3, [r7, #4]
 8001d60:	1c5a      	adds	r2, r3, #1
 8001d62:	607a      	str	r2, [r7, #4]
 8001d64:	4a23      	ldr	r2, [pc, #140]	@ (8001df4 <ReadByte+0xb0>)
 8001d66:	4293      	cmp	r3, r2
 8001d68:	d901      	bls.n	8001d6e <ReadByte+0x2a>
                // Timeout occurred
                return -1; // Return error or partial result
 8001d6a:	23ff      	movs	r3, #255	@ 0xff
 8001d6c:	e03d      	b.n	8001dea <ReadByte+0xa6>
        while (!(GPIOA->IDR & GPIO_IDR_2)) { // Wait while pin is low
 8001d6e:	2390      	movs	r3, #144	@ 0x90
 8001d70:	05db      	lsls	r3, r3, #23
 8001d72:	8a1b      	ldrh	r3, [r3, #16]
 8001d74:	b29b      	uxth	r3, r3
 8001d76:	001a      	movs	r2, r3
 8001d78:	2304      	movs	r3, #4
 8001d7a:	4013      	ands	r3, r2
 8001d7c:	d0ef      	beq.n	8001d5e <ReadByte+0x1a>
            }
        }
        // Measure high time
        delay_us(40);
 8001d7e:	2028      	movs	r0, #40	@ 0x28
 8001d80:	f7ff ff06 	bl	8001b90 <delay_us>
        if ((GPIOA->IDR & GPIO_IDR_2)) { // if pin high
 8001d84:	2390      	movs	r3, #144	@ 0x90
 8001d86:	05db      	lsls	r3, r3, #23
 8001d88:	8a1b      	ldrh	r3, [r3, #16]
 8001d8a:	b29b      	uxth	r3, r3
 8001d8c:	001a      	movs	r2, r3
 8001d8e:	2304      	movs	r3, #4
 8001d90:	4013      	ands	r3, r2
 8001d92:	d021      	beq.n	8001dd8 <ReadByte+0x94>
            result |= (1 << (7 - i)); // Bit is '1'
 8001d94:	68bb      	ldr	r3, [r7, #8]
 8001d96:	2207      	movs	r2, #7
 8001d98:	1ad3      	subs	r3, r2, r3
 8001d9a:	2201      	movs	r2, #1
 8001d9c:	409a      	lsls	r2, r3
 8001d9e:	0013      	movs	r3, r2
 8001da0:	b25a      	sxtb	r2, r3
 8001da2:	210f      	movs	r1, #15
 8001da4:	187b      	adds	r3, r7, r1
 8001da6:	781b      	ldrb	r3, [r3, #0]
 8001da8:	b25b      	sxtb	r3, r3
 8001daa:	4313      	orrs	r3, r2
 8001dac:	b25a      	sxtb	r2, r3
 8001dae:	187b      	adds	r3, r7, r1
 8001db0:	701a      	strb	r2, [r3, #0]
            // Reset timeout counter
            timeout = 0;
 8001db2:	2300      	movs	r3, #0
 8001db4:	607b      	str	r3, [r7, #4]

            // Wait for the pin to go low
            while (GPIOA->IDR & GPIO_IDR_2) { // Wait while pin is high
 8001db6:	e007      	b.n	8001dc8 <ReadByte+0x84>
                if (timeout++ > MAX_TIMEOUT) {
 8001db8:	687b      	ldr	r3, [r7, #4]
 8001dba:	1c5a      	adds	r2, r3, #1
 8001dbc:	607a      	str	r2, [r7, #4]
 8001dbe:	4a0d      	ldr	r2, [pc, #52]	@ (8001df4 <ReadByte+0xb0>)
 8001dc0:	4293      	cmp	r3, r2
 8001dc2:	d901      	bls.n	8001dc8 <ReadByte+0x84>
                    // Timeout occurred
                    return -1; // Return error or partial result
 8001dc4:	23ff      	movs	r3, #255	@ 0xff
 8001dc6:	e010      	b.n	8001dea <ReadByte+0xa6>
            while (GPIOA->IDR & GPIO_IDR_2) { // Wait while pin is high
 8001dc8:	2390      	movs	r3, #144	@ 0x90
 8001dca:	05db      	lsls	r3, r3, #23
 8001dcc:	8a1b      	ldrh	r3, [r3, #16]
 8001dce:	b29b      	uxth	r3, r3
 8001dd0:	001a      	movs	r2, r3
 8001dd2:	2304      	movs	r3, #4
 8001dd4:	4013      	ands	r3, r2
 8001dd6:	d1ef      	bne.n	8001db8 <ReadByte+0x74>
    for (int i = 0; i < 8; i++) {
 8001dd8:	68bb      	ldr	r3, [r7, #8]
 8001dda:	3301      	adds	r3, #1
 8001ddc:	60bb      	str	r3, [r7, #8]
 8001dde:	68bb      	ldr	r3, [r7, #8]
 8001de0:	2b07      	cmp	r3, #7
 8001de2:	ddb9      	ble.n	8001d58 <ReadByte+0x14>
        // Wait for the end of the bit

    }

}
    return result;
 8001de4:	230f      	movs	r3, #15
 8001de6:	18fb      	adds	r3, r7, r3
 8001de8:	781b      	ldrb	r3, [r3, #0]
}
 8001dea:	0018      	movs	r0, r3
 8001dec:	46bd      	mov	sp, r7
 8001dee:	b004      	add	sp, #16
 8001df0:	bd80      	pop	{r7, pc}
 8001df2:	46c0      	nop			@ (mov r8, r8)
 8001df4:	00002710 	.word	0x00002710

08001df8 <DHT_SetPinOutputInput>:

void DHT_SetPinOutputInput(void){
 8001df8:	b580      	push	{r7, lr}
 8001dfa:	b082      	sub	sp, #8
 8001dfc:	af00      	add	r7, sp, #0
	GPIOA->PUPDR |= GPIO_PUPDR_PUPDR2_0; // Set to 01 for pull-up
 8001dfe:	2390      	movs	r3, #144	@ 0x90
 8001e00:	05db      	lsls	r3, r3, #23
 8001e02:	68da      	ldr	r2, [r3, #12]
 8001e04:	2390      	movs	r3, #144	@ 0x90
 8001e06:	05db      	lsls	r3, r3, #23
 8001e08:	2110      	movs	r1, #16
 8001e0a:	430a      	orrs	r2, r1
 8001e0c:	60da      	str	r2, [r3, #12]
	//GPIOA->MODER |= ~ (1<<4);
	GPIOA->MODER |= (1<<4);  // Configure pin PA2 for output
 8001e0e:	2390      	movs	r3, #144	@ 0x90
 8001e10:	05db      	lsls	r3, r3, #23
 8001e12:	681a      	ldr	r2, [r3, #0]
 8001e14:	2390      	movs	r3, #144	@ 0x90
 8001e16:	05db      	lsls	r3, r3, #23
 8001e18:	2110      	movs	r1, #16
 8001e1a:	430a      	orrs	r2, r1
 8001e1c:	601a      	str	r2, [r3, #0]
	GPIOC->ODR &= ~(1<<2); // Output low
 8001e1e:	4b46      	ldr	r3, [pc, #280]	@ (8001f38 <DHT_SetPinOutputInput+0x140>)
 8001e20:	8a9b      	ldrh	r3, [r3, #20]
 8001e22:	b29b      	uxth	r3, r3
 8001e24:	4a44      	ldr	r2, [pc, #272]	@ (8001f38 <DHT_SetPinOutputInput+0x140>)
 8001e26:	2104      	movs	r1, #4
 8001e28:	438b      	bics	r3, r1
 8001e2a:	b29b      	uxth	r3, r3
 8001e2c:	8293      	strh	r3, [r2, #20]
	delay_us(1000);
 8001e2e:	23fa      	movs	r3, #250	@ 0xfa
 8001e30:	009b      	lsls	r3, r3, #2
 8001e32:	0018      	movs	r0, r3
 8001e34:	f7ff feac 	bl	8001b90 <delay_us>
	GPIOA->MODER &= ~(1<<4);  // Configure pin PA2 for input
 8001e38:	2390      	movs	r3, #144	@ 0x90
 8001e3a:	05db      	lsls	r3, r3, #23
 8001e3c:	681a      	ldr	r2, [r3, #0]
 8001e3e:	2390      	movs	r3, #144	@ 0x90
 8001e40:	05db      	lsls	r3, r3, #23
 8001e42:	2110      	movs	r1, #16
 8001e44:	438a      	bics	r2, r1
 8001e46:	601a      	str	r2, [r3, #0]
	//DHT_Response();
	GPIOA->PUPDR &= ~(GPIO_PUPDR_PUPDR2);  //disenable pull up resistor
 8001e48:	2390      	movs	r3, #144	@ 0x90
 8001e4a:	05db      	lsls	r3, r3, #23
 8001e4c:	68da      	ldr	r2, [r3, #12]
 8001e4e:	2390      	movs	r3, #144	@ 0x90
 8001e50:	05db      	lsls	r3, r3, #23
 8001e52:	2130      	movs	r1, #48	@ 0x30
 8001e54:	438a      	bics	r2, r1
 8001e56:	60da      	str	r2, [r3, #12]
	delay_us(200);
 8001e58:	20c8      	movs	r0, #200	@ 0xc8
 8001e5a:	f7ff fe99 	bl	8001b90 <delay_us>
	//NVIC_EnableIRQ(EXTI2_3_IRQn);

    for (int i = 0; i < 5; i++) {
 8001e5e:	2300      	movs	r3, #0
 8001e60:	607b      	str	r3, [r7, #4]
 8001e62:	e00f      	b.n	8001e84 <DHT_SetPinOutputInput+0x8c>
    	received_bytes[i] = ReadByte();
 8001e64:	f7ff ff6e 	bl	8001d44 <ReadByte>
 8001e68:	0003      	movs	r3, r0
 8001e6a:	0019      	movs	r1, r3
 8001e6c:	4a33      	ldr	r2, [pc, #204]	@ (8001f3c <DHT_SetPinOutputInput+0x144>)
 8001e6e:	687b      	ldr	r3, [r7, #4]
 8001e70:	18d3      	adds	r3, r2, r3
 8001e72:	1c0a      	adds	r2, r1, #0
 8001e74:	701a      	strb	r2, [r3, #0]
    	if (received_bytes[i] == -1){
 8001e76:	4a31      	ldr	r2, [pc, #196]	@ (8001f3c <DHT_SetPinOutputInput+0x144>)
 8001e78:	687b      	ldr	r3, [r7, #4]
 8001e7a:	18d3      	adds	r3, r2, r3
 8001e7c:	781b      	ldrb	r3, [r3, #0]
    for (int i = 0; i < 5; i++) {
 8001e7e:	687b      	ldr	r3, [r7, #4]
 8001e80:	3301      	adds	r3, #1
 8001e82:	607b      	str	r3, [r7, #4]
 8001e84:	687b      	ldr	r3, [r7, #4]
 8001e86:	2b04      	cmp	r3, #4
 8001e88:	ddec      	ble.n	8001e64 <DHT_SetPinOutputInput+0x6c>
    		return;

    	}

    }
    int check_sum = received_bytes[0] + received_bytes[1] + received_bytes[2] + received_bytes[3];
 8001e8a:	4b2c      	ldr	r3, [pc, #176]	@ (8001f3c <DHT_SetPinOutputInput+0x144>)
 8001e8c:	781b      	ldrb	r3, [r3, #0]
 8001e8e:	b2db      	uxtb	r3, r3
 8001e90:	001a      	movs	r2, r3
 8001e92:	4b2a      	ldr	r3, [pc, #168]	@ (8001f3c <DHT_SetPinOutputInput+0x144>)
 8001e94:	785b      	ldrb	r3, [r3, #1]
 8001e96:	b2db      	uxtb	r3, r3
 8001e98:	18d3      	adds	r3, r2, r3
 8001e9a:	4a28      	ldr	r2, [pc, #160]	@ (8001f3c <DHT_SetPinOutputInput+0x144>)
 8001e9c:	7892      	ldrb	r2, [r2, #2]
 8001e9e:	b2d2      	uxtb	r2, r2
 8001ea0:	189b      	adds	r3, r3, r2
 8001ea2:	4a26      	ldr	r2, [pc, #152]	@ (8001f3c <DHT_SetPinOutputInput+0x144>)
 8001ea4:	78d2      	ldrb	r2, [r2, #3]
 8001ea6:	b2d2      	uxtb	r2, r2
 8001ea8:	189b      	adds	r3, r3, r2
 8001eaa:	603b      	str	r3, [r7, #0]
    if( check_sum != received_bytes[4])
 8001eac:	4b23      	ldr	r3, [pc, #140]	@ (8001f3c <DHT_SetPinOutputInput+0x144>)
 8001eae:	791b      	ldrb	r3, [r3, #4]
    	//working = 1;
    }
    else{
    	//working = -1;
    }
    external_humidity = (((received_bytes[0] << 8) | received_bytes[1]) > 1000) ? external_humidity: (received_bytes[0] << 8) | received_bytes[1];
 8001eb0:	4b22      	ldr	r3, [pc, #136]	@ (8001f3c <DHT_SetPinOutputInput+0x144>)
 8001eb2:	781b      	ldrb	r3, [r3, #0]
 8001eb4:	b2db      	uxtb	r3, r3
 8001eb6:	021b      	lsls	r3, r3, #8
 8001eb8:	4a20      	ldr	r2, [pc, #128]	@ (8001f3c <DHT_SetPinOutputInput+0x144>)
 8001eba:	7852      	ldrb	r2, [r2, #1]
 8001ebc:	b2d2      	uxtb	r2, r2
 8001ebe:	431a      	orrs	r2, r3
 8001ec0:	23fa      	movs	r3, #250	@ 0xfa
 8001ec2:	009b      	lsls	r3, r3, #2
 8001ec4:	429a      	cmp	r2, r3
 8001ec6:	dc0c      	bgt.n	8001ee2 <DHT_SetPinOutputInput+0xea>
 8001ec8:	4b1c      	ldr	r3, [pc, #112]	@ (8001f3c <DHT_SetPinOutputInput+0x144>)
 8001eca:	781b      	ldrb	r3, [r3, #0]
 8001ecc:	b2db      	uxtb	r3, r3
 8001ece:	021b      	lsls	r3, r3, #8
 8001ed0:	4a1a      	ldr	r2, [pc, #104]	@ (8001f3c <DHT_SetPinOutputInput+0x144>)
 8001ed2:	7852      	ldrb	r2, [r2, #1]
 8001ed4:	b2d2      	uxtb	r2, r2
 8001ed6:	4313      	orrs	r3, r2
 8001ed8:	0018      	movs	r0, r3
 8001eda:	f7fe fabd 	bl	8000458 <__aeabi_i2f>
 8001ede:	1c02      	adds	r2, r0, #0
 8001ee0:	e001      	b.n	8001ee6 <DHT_SetPinOutputInput+0xee>
 8001ee2:	4b17      	ldr	r3, [pc, #92]	@ (8001f40 <DHT_SetPinOutputInput+0x148>)
 8001ee4:	681a      	ldr	r2, [r3, #0]
 8001ee6:	4b16      	ldr	r3, [pc, #88]	@ (8001f40 <DHT_SetPinOutputInput+0x148>)
 8001ee8:	601a      	str	r2, [r3, #0]
	external_temperature = (((received_bytes[2] << 8) | received_bytes[3]) > 1000) ? external_temperature: (received_bytes[2] << 8) | received_bytes[3];
 8001eea:	4b14      	ldr	r3, [pc, #80]	@ (8001f3c <DHT_SetPinOutputInput+0x144>)
 8001eec:	789b      	ldrb	r3, [r3, #2]
 8001eee:	b2db      	uxtb	r3, r3
 8001ef0:	021b      	lsls	r3, r3, #8
 8001ef2:	4a12      	ldr	r2, [pc, #72]	@ (8001f3c <DHT_SetPinOutputInput+0x144>)
 8001ef4:	78d2      	ldrb	r2, [r2, #3]
 8001ef6:	b2d2      	uxtb	r2, r2
 8001ef8:	431a      	orrs	r2, r3
 8001efa:	23fa      	movs	r3, #250	@ 0xfa
 8001efc:	009b      	lsls	r3, r3, #2
 8001efe:	429a      	cmp	r2, r3
 8001f00:	dc0c      	bgt.n	8001f1c <DHT_SetPinOutputInput+0x124>
 8001f02:	4b0e      	ldr	r3, [pc, #56]	@ (8001f3c <DHT_SetPinOutputInput+0x144>)
 8001f04:	789b      	ldrb	r3, [r3, #2]
 8001f06:	b2db      	uxtb	r3, r3
 8001f08:	021b      	lsls	r3, r3, #8
 8001f0a:	4a0c      	ldr	r2, [pc, #48]	@ (8001f3c <DHT_SetPinOutputInput+0x144>)
 8001f0c:	78d2      	ldrb	r2, [r2, #3]
 8001f0e:	b2d2      	uxtb	r2, r2
 8001f10:	4313      	orrs	r3, r2
 8001f12:	0018      	movs	r0, r3
 8001f14:	f7fe faa0 	bl	8000458 <__aeabi_i2f>
 8001f18:	1c02      	adds	r2, r0, #0
 8001f1a:	e001      	b.n	8001f20 <DHT_SetPinOutputInput+0x128>
 8001f1c:	4b09      	ldr	r3, [pc, #36]	@ (8001f44 <DHT_SetPinOutputInput+0x14c>)
 8001f1e:	681a      	ldr	r2, [r3, #0]
 8001f20:	4b08      	ldr	r3, [pc, #32]	@ (8001f44 <DHT_SetPinOutputInput+0x14c>)
 8001f22:	601a      	str	r2, [r3, #0]
	sum = received_bytes[4];
 8001f24:	4b05      	ldr	r3, [pc, #20]	@ (8001f3c <DHT_SetPinOutputInput+0x144>)
 8001f26:	791b      	ldrb	r3, [r3, #4]
 8001f28:	b2db      	uxtb	r3, r3
 8001f2a:	001a      	movs	r2, r3
 8001f2c:	4b06      	ldr	r3, [pc, #24]	@ (8001f48 <DHT_SetPinOutputInput+0x150>)
 8001f2e:	601a      	str	r2, [r3, #0]
}
 8001f30:	46bd      	mov	sp, r7
 8001f32:	b002      	add	sp, #8
 8001f34:	bd80      	pop	{r7, pc}
 8001f36:	46c0      	nop			@ (mov r8, r8)
 8001f38:	48000800 	.word	0x48000800
 8001f3c:	200000a8 	.word	0x200000a8
 8001f40:	200000a0 	.word	0x200000a0
 8001f44:	2000009c 	.word	0x2000009c
 8001f48:	200000a4 	.word	0x200000a4

08001f4c <TIM6_DAC_IRQHandler>:
        USART_SendChar(buffer[i]);
    }
}

void TIM6_DAC_IRQHandler (void)
{
 8001f4c:	b580      	push	{r7, lr}
 8001f4e:	af00      	add	r7, sp, #0
   if (TIM6->SR & TIM_SR_UIF) // Check if update interrupt flag is set
 8001f50:	4b0b      	ldr	r3, [pc, #44]	@ (8001f80 <TIM6_DAC_IRQHandler+0x34>)
 8001f52:	8a1b      	ldrh	r3, [r3, #16]
 8001f54:	b29b      	uxth	r3, r3
 8001f56:	001a      	movs	r2, r3
 8001f58:	2301      	movs	r3, #1
 8001f5a:	4013      	ands	r3, r2
 8001f5c:	d00d      	beq.n	8001f7a <TIM6_DAC_IRQHandler+0x2e>
   {
       TIM6->SR &= ~TIM_SR_UIF;
 8001f5e:	4b08      	ldr	r3, [pc, #32]	@ (8001f80 <TIM6_DAC_IRQHandler+0x34>)
 8001f60:	8a1b      	ldrh	r3, [r3, #16]
 8001f62:	b29b      	uxth	r3, r3
 8001f64:	4a06      	ldr	r2, [pc, #24]	@ (8001f80 <TIM6_DAC_IRQHandler+0x34>)
 8001f66:	2101      	movs	r1, #1
 8001f68:	438b      	bics	r3, r1
 8001f6a:	b29b      	uxth	r3, r3
 8001f6c:	8213      	strh	r3, [r2, #16]
       ADC1->CR |= ADC_CR_ADSTART;
 8001f6e:	4b05      	ldr	r3, [pc, #20]	@ (8001f84 <TIM6_DAC_IRQHandler+0x38>)
 8001f70:	689a      	ldr	r2, [r3, #8]
 8001f72:	4b04      	ldr	r3, [pc, #16]	@ (8001f84 <TIM6_DAC_IRQHandler+0x38>)
 8001f74:	2104      	movs	r1, #4
 8001f76:	430a      	orrs	r2, r1
 8001f78:	609a      	str	r2, [r3, #8]
   }
   // Send internal_temperature via USART
}
 8001f7a:	46c0      	nop			@ (mov r8, r8)
 8001f7c:	46bd      	mov	sp, r7
 8001f7e:	bd80      	pop	{r7, pc}
 8001f80:	40001000 	.word	0x40001000
 8001f84:	40012400 	.word	0x40012400

08001f88 <ADC_Init>:

void ADC_Init(void)
{
 8001f88:	b580      	push	{r7, lr}
 8001f8a:	af00      	add	r7, sp, #0
	RCC->APB2ENR |= RCC_APB2ENR_ADC1EN; //(1<<9); ADC clock enable
 8001f8c:	4b27      	ldr	r3, [pc, #156]	@ (800202c <ADC_Init+0xa4>)
 8001f8e:	699a      	ldr	r2, [r3, #24]
 8001f90:	4b26      	ldr	r3, [pc, #152]	@ (800202c <ADC_Init+0xa4>)
 8001f92:	2180      	movs	r1, #128	@ 0x80
 8001f94:	0089      	lsls	r1, r1, #2
 8001f96:	430a      	orrs	r2, r1
 8001f98:	619a      	str	r2, [r3, #24]
	RCC->CR2 |= RCC_CR2_HSI14ON; //1<<0; HSI clock enable
 8001f9a:	4b24      	ldr	r3, [pc, #144]	@ (800202c <ADC_Init+0xa4>)
 8001f9c:	6b5a      	ldr	r2, [r3, #52]	@ 0x34
 8001f9e:	4b23      	ldr	r3, [pc, #140]	@ (800202c <ADC_Init+0xa4>)
 8001fa0:	2101      	movs	r1, #1
 8001fa2:	430a      	orrs	r2, r1
 8001fa4:	635a      	str	r2, [r3, #52]	@ 0x34
	while((RCC->CR2&RCC_CR2_HSI14RDY)==0); //RCC->CR2&0x2 wait until clock is stable
 8001fa6:	46c0      	nop			@ (mov r8, r8)
 8001fa8:	4b20      	ldr	r3, [pc, #128]	@ (800202c <ADC_Init+0xa4>)
 8001faa:	6b5b      	ldr	r3, [r3, #52]	@ 0x34
 8001fac:	2202      	movs	r2, #2
 8001fae:	4013      	ands	r3, r2
 8001fb0:	d0fa      	beq.n	8001fa8 <ADC_Init+0x20>
	//Calibration
	ADC1->CR &= ~ADC_CR_ADEN; //DIsable ADC pg. 265
 8001fb2:	4b1f      	ldr	r3, [pc, #124]	@ (8002030 <ADC_Init+0xa8>)
 8001fb4:	689a      	ldr	r2, [r3, #8]
 8001fb6:	4b1e      	ldr	r3, [pc, #120]	@ (8002030 <ADC_Init+0xa8>)
 8001fb8:	2101      	movs	r1, #1
 8001fba:	438a      	bics	r2, r1
 8001fbc:	609a      	str	r2, [r3, #8]
	ADC1->CR |= ADC_CR_ADCAL; //(1<<31); Enable Calibration
 8001fbe:	4b1c      	ldr	r3, [pc, #112]	@ (8002030 <ADC_Init+0xa8>)
 8001fc0:	689a      	ldr	r2, [r3, #8]
 8001fc2:	4b1b      	ldr	r3, [pc, #108]	@ (8002030 <ADC_Init+0xa8>)
 8001fc4:	2180      	movs	r1, #128	@ 0x80
 8001fc6:	0609      	lsls	r1, r1, #24
 8001fc8:	430a      	orrs	r2, r1
 8001fca:	609a      	str	r2, [r3, #8]
	while((ADC1->CR&ADC_CR_ADCAL)!=0); //Wait until calibration is done
 8001fcc:	46c0      	nop			@ (mov r8, r8)
 8001fce:	4b18      	ldr	r3, [pc, #96]	@ (8002030 <ADC_Init+0xa8>)
 8001fd0:	689b      	ldr	r3, [r3, #8]
 8001fd2:	2b00      	cmp	r3, #0
 8001fd4:	dbfb      	blt.n	8001fce <ADC_Init+0x46>
	/////
	ADC1->CR |= ADC_CR_ADEN; //ADC enable
 8001fd6:	4b16      	ldr	r3, [pc, #88]	@ (8002030 <ADC_Init+0xa8>)
 8001fd8:	689a      	ldr	r2, [r3, #8]
 8001fda:	4b15      	ldr	r3, [pc, #84]	@ (8002030 <ADC_Init+0xa8>)
 8001fdc:	2101      	movs	r1, #1
 8001fde:	430a      	orrs	r2, r1
 8001fe0:	609a      	str	r2, [r3, #8]
	while((ADC1->ISR&ADC_ISR_ADRDY)==0); //Wait until ADC is ready
 8001fe2:	46c0      	nop			@ (mov r8, r8)
 8001fe4:	4b12      	ldr	r3, [pc, #72]	@ (8002030 <ADC_Init+0xa8>)
 8001fe6:	681b      	ldr	r3, [r3, #0]
 8001fe8:	2201      	movs	r2, #1
 8001fea:	4013      	ands	r3, r2
 8001fec:	d0fa      	beq.n	8001fe4 <ADC_Init+0x5c>
	ADC1->CFGR1 |= ADC_CFGR1_AUTOFF; //1<<15 pg. 267 ADC is off when not converting
 8001fee:	4b10      	ldr	r3, [pc, #64]	@ (8002030 <ADC_Init+0xa8>)
 8001ff0:	68da      	ldr	r2, [r3, #12]
 8001ff2:	4b0f      	ldr	r3, [pc, #60]	@ (8002030 <ADC_Init+0xa8>)
 8001ff4:	2180      	movs	r1, #128	@ 0x80
 8001ff6:	0209      	lsls	r1, r1, #8
 8001ff8:	430a      	orrs	r2, r1
 8001ffa:	60da      	str	r2, [r3, #12]
	ADC1->CHSELR |= ADC_CHSELR_CHSEL10;
 8001ffc:	4b0c      	ldr	r3, [pc, #48]	@ (8002030 <ADC_Init+0xa8>)
 8001ffe:	6a9a      	ldr	r2, [r3, #40]	@ 0x28
 8002000:	4b0b      	ldr	r3, [pc, #44]	@ (8002030 <ADC_Init+0xa8>)
 8002002:	2180      	movs	r1, #128	@ 0x80
 8002004:	00c9      	lsls	r1, r1, #3
 8002006:	430a      	orrs	r2, r1
 8002008:	629a      	str	r2, [r3, #40]	@ 0x28

    // Enable ADC interrupt
    ADC1->IER |= ADC_IER_EOCIE; // Enable end of conversion interrupt
 800200a:	4b09      	ldr	r3, [pc, #36]	@ (8002030 <ADC_Init+0xa8>)
 800200c:	685a      	ldr	r2, [r3, #4]
 800200e:	4b08      	ldr	r3, [pc, #32]	@ (8002030 <ADC_Init+0xa8>)
 8002010:	2104      	movs	r1, #4
 8002012:	430a      	orrs	r2, r1
 8002014:	605a      	str	r2, [r3, #4]
    NVIC_SetPriority(ADC1_COMP_IRQn, 1); // Set priority for ADC interrupt
 8002016:	2101      	movs	r1, #1
 8002018:	200c      	movs	r0, #12
 800201a:	f7ff fc65 	bl	80018e8 <NVIC_SetPriority>
    NVIC_EnableIRQ(ADC1_COMP_IRQn); // Enable ADC interrupt in NVIC
 800201e:	200c      	movs	r0, #12
 8002020:	f7ff fc34 	bl	800188c <NVIC_EnableIRQ>
}
 8002024:	46c0      	nop			@ (mov r8, r8)
 8002026:	46bd      	mov	sp, r7
 8002028:	bd80      	pop	{r7, pc}
 800202a:	46c0      	nop			@ (mov r8, r8)
 800202c:	40021000 	.word	0x40021000
 8002030:	40012400 	.word	0x40012400

08002034 <ADC_COMP_IRQHandler>:



void ADC_COMP_IRQHandler(void)
{
 8002034:	b580      	push	{r7, lr}
 8002036:	b086      	sub	sp, #24
 8002038:	af00      	add	r7, sp, #0
    if (ADC1->ISR & ADC_ISR_EOC) // Check if end of conversion flag is set
 800203a:	4b1d      	ldr	r3, [pc, #116]	@ (80020b0 <ADC_COMP_IRQHandler+0x7c>)
 800203c:	681b      	ldr	r3, [r3, #0]
 800203e:	2204      	movs	r2, #4
 8002040:	4013      	ands	r3, r2
 8002042:	d015      	beq.n	8002070 <ADC_COMP_IRQHandler+0x3c>
    {
        unsigned int vic = ADC1->DR;
 8002044:	4b1a      	ldr	r3, [pc, #104]	@ (80020b0 <ADC_COMP_IRQHandler+0x7c>)
 8002046:	6c1b      	ldr	r3, [r3, #64]	@ 0x40
 8002048:	613b      	str	r3, [r7, #16]
        internal_temperature = (((long) vic - 200) * 8392) / 100000 - 112;
 800204a:	693b      	ldr	r3, [r7, #16]
 800204c:	3bc8      	subs	r3, #200	@ 0xc8
 800204e:	4a19      	ldr	r2, [pc, #100]	@ (80020b4 <ADC_COMP_IRQHandler+0x80>)
 8002050:	4353      	muls	r3, r2
 8002052:	4919      	ldr	r1, [pc, #100]	@ (80020b8 <ADC_COMP_IRQHandler+0x84>)
 8002054:	0018      	movs	r0, r3
 8002056:	f7fe f8f3 	bl	8000240 <__divsi3>
 800205a:	0003      	movs	r3, r0
 800205c:	3b70      	subs	r3, #112	@ 0x70
 800205e:	001a      	movs	r2, r3
 8002060:	4b16      	ldr	r3, [pc, #88]	@ (80020bc <ADC_COMP_IRQHandler+0x88>)
 8002062:	601a      	str	r2, [r3, #0]
        ADC1->ISR |= ADC_ISR_EOC; // Clear end of conversion flag
 8002064:	4b12      	ldr	r3, [pc, #72]	@ (80020b0 <ADC_COMP_IRQHandler+0x7c>)
 8002066:	681a      	ldr	r2, [r3, #0]
 8002068:	4b11      	ldr	r3, [pc, #68]	@ (80020b0 <ADC_COMP_IRQHandler+0x7c>)
 800206a:	2104      	movs	r1, #4
 800206c:	430a      	orrs	r2, r1
 800206e:	601a      	str	r2, [r3, #0]
        //ADC1->CR |= ADC_CR_ADSTART; // Restart ADC conversion
    }
    // Send internal_temperature via USART
    char buffer[16];
    sprintf(buffer, "I:%lu\n", internal_temperature);
 8002070:	4b12      	ldr	r3, [pc, #72]	@ (80020bc <ADC_COMP_IRQHandler+0x88>)
 8002072:	681a      	ldr	r2, [r3, #0]
 8002074:	4912      	ldr	r1, [pc, #72]	@ (80020c0 <ADC_COMP_IRQHandler+0x8c>)
 8002076:	003b      	movs	r3, r7
 8002078:	0018      	movs	r0, r3
 800207a:	f000 fa4f 	bl	800251c <siprintf>
    for (int i = 0; buffer[i] != '\0'; i++) {
 800207e:	2300      	movs	r3, #0
 8002080:	617b      	str	r3, [r7, #20]
 8002082:	e009      	b.n	8002098 <ADC_COMP_IRQHandler+0x64>
        USART_SendChar(buffer[i]);
 8002084:	003a      	movs	r2, r7
 8002086:	697b      	ldr	r3, [r7, #20]
 8002088:	18d3      	adds	r3, r2, r3
 800208a:	781b      	ldrb	r3, [r3, #0]
 800208c:	0018      	movs	r0, r3
 800208e:	f000 f95d 	bl	800234c <USART_SendChar>
    for (int i = 0; buffer[i] != '\0'; i++) {
 8002092:	697b      	ldr	r3, [r7, #20]
 8002094:	3301      	adds	r3, #1
 8002096:	617b      	str	r3, [r7, #20]
 8002098:	003a      	movs	r2, r7
 800209a:	697b      	ldr	r3, [r7, #20]
 800209c:	18d3      	adds	r3, r2, r3
 800209e:	781b      	ldrb	r3, [r3, #0]
 80020a0:	2b00      	cmp	r3, #0
 80020a2:	d1ef      	bne.n	8002084 <ADC_COMP_IRQHandler+0x50>
    }
}
 80020a4:	46c0      	nop			@ (mov r8, r8)
 80020a6:	46c0      	nop			@ (mov r8, r8)
 80020a8:	46bd      	mov	sp, r7
 80020aa:	b006      	add	sp, #24
 80020ac:	bd80      	pop	{r7, pc}
 80020ae:	46c0      	nop			@ (mov r8, r8)
 80020b0:	40012400 	.word	0x40012400
 80020b4:	000020c8 	.word	0x000020c8
 80020b8:	000186a0 	.word	0x000186a0
 80020bc:	20000078 	.word	0x20000078
 80020c0:	08003810 	.word	0x08003810

080020c4 <TIM6_Init>:

void TIM6_Init(void)
{
 80020c4:	b580      	push	{r7, lr}
 80020c6:	af00      	add	r7, sp, #0
    //**** Inicializa Timer6  *******
    RCC->APB1ENR |= RCC_APB1ENR_TIM6EN;  // Enable TIM6 clock
 80020c8:	4b12      	ldr	r3, [pc, #72]	@ (8002114 <TIM6_Init+0x50>)
 80020ca:	69da      	ldr	r2, [r3, #28]
 80020cc:	4b11      	ldr	r3, [pc, #68]	@ (8002114 <TIM6_Init+0x50>)
 80020ce:	2110      	movs	r1, #16
 80020d0:	430a      	orrs	r2, r1
 80020d2:	61da      	str	r2, [r3, #28]
    TIM6->PSC = 8000 - 1;               // Set prescaler
 80020d4:	4b10      	ldr	r3, [pc, #64]	@ (8002118 <TIM6_Init+0x54>)
 80020d6:	4a11      	ldr	r2, [pc, #68]	@ (800211c <TIM6_Init+0x58>)
 80020d8:	851a      	strh	r2, [r3, #40]	@ 0x28
    TIM6->ARR = 100;                     // Set auto-reload value to 999 (1 second interval)
 80020da:	4b0f      	ldr	r3, [pc, #60]	@ (8002118 <TIM6_Init+0x54>)
 80020dc:	2264      	movs	r2, #100	@ 0x64
 80020de:	62da      	str	r2, [r3, #44]	@ 0x2c
    TIM6->CR1 |= TIM_CR1_CEN;            // Enable TIM6 counter
 80020e0:	4b0d      	ldr	r3, [pc, #52]	@ (8002118 <TIM6_Init+0x54>)
 80020e2:	881b      	ldrh	r3, [r3, #0]
 80020e4:	b29b      	uxth	r3, r3
 80020e6:	4a0c      	ldr	r2, [pc, #48]	@ (8002118 <TIM6_Init+0x54>)
 80020e8:	2101      	movs	r1, #1
 80020ea:	430b      	orrs	r3, r1
 80020ec:	b29b      	uxth	r3, r3
 80020ee:	8013      	strh	r3, [r2, #0]
    TIM6->DIER |= TIM_DIER_UIE;          // Enable update interrupt
 80020f0:	4b09      	ldr	r3, [pc, #36]	@ (8002118 <TIM6_Init+0x54>)
 80020f2:	899b      	ldrh	r3, [r3, #12]
 80020f4:	b29b      	uxth	r3, r3
 80020f6:	4a08      	ldr	r2, [pc, #32]	@ (8002118 <TIM6_Init+0x54>)
 80020f8:	2101      	movs	r1, #1
 80020fa:	430b      	orrs	r3, r1
 80020fc:	b29b      	uxth	r3, r3
 80020fe:	8193      	strh	r3, [r2, #12]
    NVIC_SetPriority(TIM6_DAC_IRQn, 1);  // Set priority for TIM6 interrupt
 8002100:	2101      	movs	r1, #1
 8002102:	2011      	movs	r0, #17
 8002104:	f7ff fbf0 	bl	80018e8 <NVIC_SetPriority>
    NVIC_EnableIRQ(TIM6_DAC_IRQn);       // Enable TIM6 interrupt in NVIC
 8002108:	2011      	movs	r0, #17
 800210a:	f7ff fbbf 	bl	800188c <NVIC_EnableIRQ>
}
 800210e:	46c0      	nop			@ (mov r8, r8)
 8002110:	46bd      	mov	sp, r7
 8002112:	bd80      	pop	{r7, pc}
 8002114:	40021000 	.word	0x40021000
 8002118:	40001000 	.word	0x40001000
 800211c:	00001f3f 	.word	0x00001f3f

08002120 <TIM14_Init>:

void TIM14_Init(void)
{
 8002120:	b580      	push	{r7, lr}
 8002122:	af00      	add	r7, sp, #0
    //**** Inicializa Timer6  *******
    RCC->APB1ENR |= RCC_APB1ENR_TIM14EN;  // Enable TIM6 clock
 8002124:	4b13      	ldr	r3, [pc, #76]	@ (8002174 <TIM14_Init+0x54>)
 8002126:	69da      	ldr	r2, [r3, #28]
 8002128:	4b12      	ldr	r3, [pc, #72]	@ (8002174 <TIM14_Init+0x54>)
 800212a:	2180      	movs	r1, #128	@ 0x80
 800212c:	0049      	lsls	r1, r1, #1
 800212e:	430a      	orrs	r2, r1
 8002130:	61da      	str	r2, [r3, #28]
    TIM14->PSC = 8000 - 1;               // Set prescaler
 8002132:	4b11      	ldr	r3, [pc, #68]	@ (8002178 <TIM14_Init+0x58>)
 8002134:	4a11      	ldr	r2, [pc, #68]	@ (800217c <TIM14_Init+0x5c>)
 8002136:	851a      	strh	r2, [r3, #40]	@ 0x28
    TIM14->ARR = 3000;                     // Set auto-reload value to 999 (1 second interval)
 8002138:	4b0f      	ldr	r3, [pc, #60]	@ (8002178 <TIM14_Init+0x58>)
 800213a:	4a11      	ldr	r2, [pc, #68]	@ (8002180 <TIM14_Init+0x60>)
 800213c:	62da      	str	r2, [r3, #44]	@ 0x2c
    TIM14->CR1 |= TIM_CR1_CEN;            // Enable TIM6 counter
 800213e:	4b0e      	ldr	r3, [pc, #56]	@ (8002178 <TIM14_Init+0x58>)
 8002140:	881b      	ldrh	r3, [r3, #0]
 8002142:	b29b      	uxth	r3, r3
 8002144:	4a0c      	ldr	r2, [pc, #48]	@ (8002178 <TIM14_Init+0x58>)
 8002146:	2101      	movs	r1, #1
 8002148:	430b      	orrs	r3, r1
 800214a:	b29b      	uxth	r3, r3
 800214c:	8013      	strh	r3, [r2, #0]
    TIM14->DIER |= TIM_DIER_UIE;          // Enable update interrupt
 800214e:	4b0a      	ldr	r3, [pc, #40]	@ (8002178 <TIM14_Init+0x58>)
 8002150:	899b      	ldrh	r3, [r3, #12]
 8002152:	b29b      	uxth	r3, r3
 8002154:	4a08      	ldr	r2, [pc, #32]	@ (8002178 <TIM14_Init+0x58>)
 8002156:	2101      	movs	r1, #1
 8002158:	430b      	orrs	r3, r1
 800215a:	b29b      	uxth	r3, r3
 800215c:	8193      	strh	r3, [r2, #12]
    NVIC_SetPriority(TIM14_IRQn, 0);  // Set priority for TIM6 interrupt
 800215e:	2100      	movs	r1, #0
 8002160:	2013      	movs	r0, #19
 8002162:	f7ff fbc1 	bl	80018e8 <NVIC_SetPriority>
    NVIC_EnableIRQ(TIM14_IRQn);       // Enable TIM6 interrupt in NVIC
 8002166:	2013      	movs	r0, #19
 8002168:	f7ff fb90 	bl	800188c <NVIC_EnableIRQ>
}
 800216c:	46c0      	nop			@ (mov r8, r8)
 800216e:	46bd      	mov	sp, r7
 8002170:	bd80      	pop	{r7, pc}
 8002172:	46c0      	nop			@ (mov r8, r8)
 8002174:	40021000 	.word	0x40021000
 8002178:	40002000 	.word	0x40002000
 800217c:	00001f3f 	.word	0x00001f3f
 8002180:	00000bb8 	.word	0x00000bb8

08002184 <TIM14_IRQHandler>:

void TIM14_IRQHandler(void){
 8002184:	b590      	push	{r4, r7, lr}
 8002186:	b08b      	sub	sp, #44	@ 0x2c
 8002188:	af00      	add	r7, sp, #0
	TIM14->SR = 0;  // Clear status register
 800218a:	4b17      	ldr	r3, [pc, #92]	@ (80021e8 <TIM14_IRQHandler+0x64>)
 800218c:	2200      	movs	r2, #0
 800218e:	821a      	strh	r2, [r3, #16]
    DHT_SetPinOutputInput();
 8002190:	f7ff fe32 	bl	8001df8 <DHT_SetPinOutputInput>
    char buffer[32];
    sprintf(buffer, "H:%d T:%d\n", (int)external_humidity, (int)external_temperature);
 8002194:	4b15      	ldr	r3, [pc, #84]	@ (80021ec <TIM14_IRQHandler+0x68>)
 8002196:	681b      	ldr	r3, [r3, #0]
 8002198:	1c18      	adds	r0, r3, #0
 800219a:	f7fe f93d 	bl	8000418 <__aeabi_f2iz>
 800219e:	0004      	movs	r4, r0
 80021a0:	4b13      	ldr	r3, [pc, #76]	@ (80021f0 <TIM14_IRQHandler+0x6c>)
 80021a2:	681b      	ldr	r3, [r3, #0]
 80021a4:	1c18      	adds	r0, r3, #0
 80021a6:	f7fe f937 	bl	8000418 <__aeabi_f2iz>
 80021aa:	0003      	movs	r3, r0
 80021ac:	4911      	ldr	r1, [pc, #68]	@ (80021f4 <TIM14_IRQHandler+0x70>)
 80021ae:	1d38      	adds	r0, r7, #4
 80021b0:	0022      	movs	r2, r4
 80021b2:	f000 f9b3 	bl	800251c <siprintf>
    for (int i = 0; buffer[i] != '\0'; i++) {
 80021b6:	2300      	movs	r3, #0
 80021b8:	627b      	str	r3, [r7, #36]	@ 0x24
 80021ba:	e009      	b.n	80021d0 <TIM14_IRQHandler+0x4c>
        USART_SendChar(buffer[i]);
 80021bc:	1d3a      	adds	r2, r7, #4
 80021be:	6a7b      	ldr	r3, [r7, #36]	@ 0x24
 80021c0:	18d3      	adds	r3, r2, r3
 80021c2:	781b      	ldrb	r3, [r3, #0]
 80021c4:	0018      	movs	r0, r3
 80021c6:	f000 f8c1 	bl	800234c <USART_SendChar>
    for (int i = 0; buffer[i] != '\0'; i++) {
 80021ca:	6a7b      	ldr	r3, [r7, #36]	@ 0x24
 80021cc:	3301      	adds	r3, #1
 80021ce:	627b      	str	r3, [r7, #36]	@ 0x24
 80021d0:	1d3a      	adds	r2, r7, #4
 80021d2:	6a7b      	ldr	r3, [r7, #36]	@ 0x24
 80021d4:	18d3      	adds	r3, r2, r3
 80021d6:	781b      	ldrb	r3, [r3, #0]
 80021d8:	2b00      	cmp	r3, #0
 80021da:	d1ef      	bne.n	80021bc <TIM14_IRQHandler+0x38>
    }
}
 80021dc:	46c0      	nop			@ (mov r8, r8)
 80021de:	46c0      	nop			@ (mov r8, r8)
 80021e0:	46bd      	mov	sp, r7
 80021e2:	b00b      	add	sp, #44	@ 0x2c
 80021e4:	bd90      	pop	{r4, r7, pc}
 80021e6:	46c0      	nop			@ (mov r8, r8)
 80021e8:	40002000 	.word	0x40002000
 80021ec:	200000a0 	.word	0x200000a0
 80021f0:	2000009c 	.word	0x2000009c
 80021f4:	08003818 	.word	0x08003818

080021f8 <DHT_Init>:

void DHT_Init(void){
 80021f8:	b580      	push	{r7, lr}
 80021fa:	af00      	add	r7, sp, #0
    // Enable GPIOA clock
    RCC->AHBENR |= RCC_AHBENR_GPIOAEN;
 80021fc:	4b18      	ldr	r3, [pc, #96]	@ (8002260 <DHT_Init+0x68>)
 80021fe:	695a      	ldr	r2, [r3, #20]
 8002200:	4b17      	ldr	r3, [pc, #92]	@ (8002260 <DHT_Init+0x68>)
 8002202:	2180      	movs	r1, #128	@ 0x80
 8002204:	0289      	lsls	r1, r1, #10
 8002206:	430a      	orrs	r2, r1
 8002208:	615a      	str	r2, [r3, #20]

    // Configure PA2 as input
    GPIOA->MODER &= ~(GPIO_MODER_MODER2);
 800220a:	2390      	movs	r3, #144	@ 0x90
 800220c:	05db      	lsls	r3, r3, #23
 800220e:	681a      	ldr	r2, [r3, #0]
 8002210:	2390      	movs	r3, #144	@ 0x90
 8002212:	05db      	lsls	r3, r3, #23
 8002214:	2130      	movs	r1, #48	@ 0x30
 8002216:	438a      	bics	r2, r1
 8002218:	601a      	str	r2, [r3, #0]

    // Enable pull-up resistor on PA2
    GPIOA->PUPDR &= ~(GPIO_PUPDR_PUPDR2);
 800221a:	2390      	movs	r3, #144	@ 0x90
 800221c:	05db      	lsls	r3, r3, #23
 800221e:	68da      	ldr	r2, [r3, #12]
 8002220:	2390      	movs	r3, #144	@ 0x90
 8002222:	05db      	lsls	r3, r3, #23
 8002224:	2130      	movs	r1, #48	@ 0x30
 8002226:	438a      	bics	r2, r1
 8002228:	60da      	str	r2, [r3, #12]
    GPIOA->PUPDR |= GPIO_PUPDR_PUPDR2_0; // Set to 01 for pull-up
 800222a:	2390      	movs	r3, #144	@ 0x90
 800222c:	05db      	lsls	r3, r3, #23
 800222e:	68da      	ldr	r2, [r3, #12]
 8002230:	2390      	movs	r3, #144	@ 0x90
 8002232:	05db      	lsls	r3, r3, #23
 8002234:	2110      	movs	r1, #16
 8002236:	430a      	orrs	r2, r1
 8002238:	60da      	str	r2, [r3, #12]

    // Enable SYSCFG clock
    RCC->APB2ENR |= RCC_APB2ENR_SYSCFGEN;
 800223a:	4b09      	ldr	r3, [pc, #36]	@ (8002260 <DHT_Init+0x68>)
 800223c:	699a      	ldr	r2, [r3, #24]
 800223e:	4b08      	ldr	r3, [pc, #32]	@ (8002260 <DHT_Init+0x68>)
 8002240:	2101      	movs	r1, #1
 8002242:	430a      	orrs	r2, r1
 8002244:	619a      	str	r2, [r3, #24]

    // Configure EXTI line for PA2
    SYSCFG->EXTICR[0] &= ~(SYSCFG_EXTICR1_EXTI2);
 8002246:	4b07      	ldr	r3, [pc, #28]	@ (8002264 <DHT_Init+0x6c>)
 8002248:	689a      	ldr	r2, [r3, #8]
 800224a:	4b06      	ldr	r3, [pc, #24]	@ (8002264 <DHT_Init+0x6c>)
 800224c:	4906      	ldr	r1, [pc, #24]	@ (8002268 <DHT_Init+0x70>)
 800224e:	400a      	ands	r2, r1
 8002250:	609a      	str	r2, [r3, #8]
    SYSCFG->EXTICR[0] |= SYSCFG_EXTICR1_EXTI2_PA;
 8002252:	4a04      	ldr	r2, [pc, #16]	@ (8002264 <DHT_Init+0x6c>)
 8002254:	4b03      	ldr	r3, [pc, #12]	@ (8002264 <DHT_Init+0x6c>)
 8002256:	6892      	ldr	r2, [r2, #8]
 8002258:	609a      	str	r2, [r3, #8]

}
 800225a:	46c0      	nop			@ (mov r8, r8)
 800225c:	46bd      	mov	sp, r7
 800225e:	bd80      	pop	{r7, pc}
 8002260:	40021000 	.word	0x40021000
 8002264:	40010000 	.word	0x40010000
 8002268:	fffff0ff 	.word	0xfffff0ff

0800226c <main>:

int main(void)
{
 800226c:	b580      	push	{r7, lr}
 800226e:	af00      	add	r7, sp, #0
    USART_Init();
 8002270:	f000 f80e 	bl	8002290 <USART_Init>
    TIM6_Init();
 8002274:	f7ff ff26 	bl	80020c4 <TIM6_Init>
    ADC_Init();
 8002278:	f7ff fe86 	bl	8001f88 <ADC_Init>
    ZeroCrossingInit();
 800227c:	f7ff fba2 	bl	80019c4 <ZeroCrossingInit>
    DHT_Init();
 8002280:	f7ff ffba 	bl	80021f8 <DHT_Init>
    TIM14_Init();
 8002284:	f7ff ff4c 	bl	8002120 <TIM14_Init>
    //ConveyorON();
    FanConveyorCtrlInit();
 8002288:	f7ff fbe2 	bl	8001a50 <FanConveyorCtrlInit>

    while (1)
 800228c:	46c0      	nop			@ (mov r8, r8)
 800228e:	e7fd      	b.n	800228c <main+0x20>

08002290 <USART_Init>:
        //for (volatile int i = 0; i < 100000; i++); // Simple delay
    }
}

void USART_Init(void)
{
 8002290:	b580      	push	{r7, lr}
 8002292:	af00      	add	r7, sp, #0
    // Enable the clock for GPIOA and USART1
    RCC->AHBENR |= RCC_AHBENR_GPIOAEN;
 8002294:	4b2a      	ldr	r3, [pc, #168]	@ (8002340 <USART_Init+0xb0>)
 8002296:	695a      	ldr	r2, [r3, #20]
 8002298:	4b29      	ldr	r3, [pc, #164]	@ (8002340 <USART_Init+0xb0>)
 800229a:	2180      	movs	r1, #128	@ 0x80
 800229c:	0289      	lsls	r1, r1, #10
 800229e:	430a      	orrs	r2, r1
 80022a0:	615a      	str	r2, [r3, #20]
    RCC->APB2ENR |= RCC_APB2ENR_USART1EN;
 80022a2:	4b27      	ldr	r3, [pc, #156]	@ (8002340 <USART_Init+0xb0>)
 80022a4:	699a      	ldr	r2, [r3, #24]
 80022a6:	4b26      	ldr	r3, [pc, #152]	@ (8002340 <USART_Init+0xb0>)
 80022a8:	2180      	movs	r1, #128	@ 0x80
 80022aa:	01c9      	lsls	r1, r1, #7
 80022ac:	430a      	orrs	r2, r1
 80022ae:	619a      	str	r2, [r3, #24]

    // Configure PA9 as USART1_TX (AF1)
    GPIOA->MODER |= GPIO_MODER_MODER9_1;
 80022b0:	2390      	movs	r3, #144	@ 0x90
 80022b2:	05db      	lsls	r3, r3, #23
 80022b4:	681a      	ldr	r2, [r3, #0]
 80022b6:	2390      	movs	r3, #144	@ 0x90
 80022b8:	05db      	lsls	r3, r3, #23
 80022ba:	2180      	movs	r1, #128	@ 0x80
 80022bc:	0309      	lsls	r1, r1, #12
 80022be:	430a      	orrs	r2, r1
 80022c0:	601a      	str	r2, [r3, #0]
    GPIOA->AFR[1] |= (1 << (1 * 4)); // AF1 for PA9
 80022c2:	2390      	movs	r3, #144	@ 0x90
 80022c4:	05db      	lsls	r3, r3, #23
 80022c6:	6a5a      	ldr	r2, [r3, #36]	@ 0x24
 80022c8:	2390      	movs	r3, #144	@ 0x90
 80022ca:	05db      	lsls	r3, r3, #23
 80022cc:	2110      	movs	r1, #16
 80022ce:	430a      	orrs	r2, r1
 80022d0:	625a      	str	r2, [r3, #36]	@ 0x24

    // Configure PA10 as USART1_RX (AF1)
    GPIOA->MODER |= GPIO_MODER_MODER10_1;
 80022d2:	2390      	movs	r3, #144	@ 0x90
 80022d4:	05db      	lsls	r3, r3, #23
 80022d6:	681a      	ldr	r2, [r3, #0]
 80022d8:	2390      	movs	r3, #144	@ 0x90
 80022da:	05db      	lsls	r3, r3, #23
 80022dc:	2180      	movs	r1, #128	@ 0x80
 80022de:	0389      	lsls	r1, r1, #14
 80022e0:	430a      	orrs	r2, r1
 80022e2:	601a      	str	r2, [r3, #0]
    GPIOA->AFR[1] |= (1 << (2 * 4)); // AF1 for PA10
 80022e4:	2390      	movs	r3, #144	@ 0x90
 80022e6:	05db      	lsls	r3, r3, #23
 80022e8:	6a5a      	ldr	r2, [r3, #36]	@ 0x24
 80022ea:	2390      	movs	r3, #144	@ 0x90
 80022ec:	05db      	lsls	r3, r3, #23
 80022ee:	2180      	movs	r1, #128	@ 0x80
 80022f0:	0049      	lsls	r1, r1, #1
 80022f2:	430a      	orrs	r2, r1
 80022f4:	625a      	str	r2, [r3, #36]	@ 0x24

    // Configure USART1
    USART1->BRR = 8000000 / 9600; // Assuming 8 MHz clock and 9600 baud rate
 80022f6:	4b13      	ldr	r3, [pc, #76]	@ (8002344 <USART_Init+0xb4>)
 80022f8:	4a13      	ldr	r2, [pc, #76]	@ (8002348 <USART_Init+0xb8>)
 80022fa:	819a      	strh	r2, [r3, #12]
    USART1->CR1 |= USART_CR1_TE; // Enable transmitter
 80022fc:	4b11      	ldr	r3, [pc, #68]	@ (8002344 <USART_Init+0xb4>)
 80022fe:	681a      	ldr	r2, [r3, #0]
 8002300:	4b10      	ldr	r3, [pc, #64]	@ (8002344 <USART_Init+0xb4>)
 8002302:	2108      	movs	r1, #8
 8002304:	430a      	orrs	r2, r1
 8002306:	601a      	str	r2, [r3, #0]
    USART1->CR1 |= USART_CR1_RE; // Enable receiver
 8002308:	4b0e      	ldr	r3, [pc, #56]	@ (8002344 <USART_Init+0xb4>)
 800230a:	681a      	ldr	r2, [r3, #0]
 800230c:	4b0d      	ldr	r3, [pc, #52]	@ (8002344 <USART_Init+0xb4>)
 800230e:	2104      	movs	r1, #4
 8002310:	430a      	orrs	r2, r1
 8002312:	601a      	str	r2, [r3, #0]
    //USART1->CR1 |= (1<<6); // Enable Local Intr
    USART1->CR1 |= USART_CR1_RXNEIE;
 8002314:	4b0b      	ldr	r3, [pc, #44]	@ (8002344 <USART_Init+0xb4>)
 8002316:	681a      	ldr	r2, [r3, #0]
 8002318:	4b0a      	ldr	r3, [pc, #40]	@ (8002344 <USART_Init+0xb4>)
 800231a:	2120      	movs	r1, #32
 800231c:	430a      	orrs	r2, r1
 800231e:	601a      	str	r2, [r3, #0]
    USART1->CR1 |= USART_CR1_UE; // Enable USART
 8002320:	4b08      	ldr	r3, [pc, #32]	@ (8002344 <USART_Init+0xb4>)
 8002322:	681a      	ldr	r2, [r3, #0]
 8002324:	4b07      	ldr	r3, [pc, #28]	@ (8002344 <USART_Init+0xb4>)
 8002326:	2101      	movs	r1, #1
 8002328:	430a      	orrs	r2, r1
 800232a:	601a      	str	r2, [r3, #0]

    // Enable USART1 interrupt
    NVIC_SetPriority(USART1_IRQn, 1);
 800232c:	2101      	movs	r1, #1
 800232e:	201b      	movs	r0, #27
 8002330:	f7ff fada 	bl	80018e8 <NVIC_SetPriority>
    NVIC_EnableIRQ(USART1_IRQn);
 8002334:	201b      	movs	r0, #27
 8002336:	f7ff faa9 	bl	800188c <NVIC_EnableIRQ>
}
 800233a:	46c0      	nop			@ (mov r8, r8)
 800233c:	46bd      	mov	sp, r7
 800233e:	bd80      	pop	{r7, pc}
 8002340:	40021000 	.word	0x40021000
 8002344:	40013800 	.word	0x40013800
 8002348:	00000341 	.word	0x00000341

0800234c <USART_SendChar>:

void USART_SendChar(char c)
{
 800234c:	b580      	push	{r7, lr}
 800234e:	b082      	sub	sp, #8
 8002350:	af00      	add	r7, sp, #0
 8002352:	0002      	movs	r2, r0
 8002354:	1dfb      	adds	r3, r7, #7
 8002356:	701a      	strb	r2, [r3, #0]
    while (!(USART1->ISR & USART_ISR_TXE)); // Wait until transmit data register is empty
 8002358:	46c0      	nop			@ (mov r8, r8)
 800235a:	4b07      	ldr	r3, [pc, #28]	@ (8002378 <USART_SendChar+0x2c>)
 800235c:	69db      	ldr	r3, [r3, #28]
 800235e:	2280      	movs	r2, #128	@ 0x80
 8002360:	4013      	ands	r3, r2
 8002362:	d0fa      	beq.n	800235a <USART_SendChar+0xe>
    USART1->TDR = c; // Transmit the character
 8002364:	4a04      	ldr	r2, [pc, #16]	@ (8002378 <USART_SendChar+0x2c>)
 8002366:	1dfb      	adds	r3, r7, #7
 8002368:	781b      	ldrb	r3, [r3, #0]
 800236a:	b29b      	uxth	r3, r3
 800236c:	8513      	strh	r3, [r2, #40]	@ 0x28
}
 800236e:	46c0      	nop			@ (mov r8, r8)
 8002370:	46bd      	mov	sp, r7
 8002372:	b002      	add	sp, #8
 8002374:	bd80      	pop	{r7, pc}
 8002376:	46c0      	nop			@ (mov r8, r8)
 8002378:	40013800 	.word	0x40013800

0800237c <parseReceivedData>:

void parseReceivedData(char* data) {
 800237c:	b590      	push	{r4, r7, lr}
 800237e:	b089      	sub	sp, #36	@ 0x24
 8002380:	af02      	add	r7, sp, #8
 8002382:	6078      	str	r0, [r7, #4]
    int conveyor = 0;
 8002384:	2300      	movs	r3, #0
 8002386:	617b      	str	r3, [r7, #20]
    int fan = 0;
 8002388:	2300      	movs	r3, #0
 800238a:	613b      	str	r3, [r7, #16]
    int temp_control = 0;
 800238c:	2300      	movs	r3, #0
 800238e:	60fb      	str	r3, [r7, #12]

    // Parse the string and extract the values
    if (sscanf(data, "C:%d F:%d T:%d", &conveyor, &fan, &temp_control) == 3) {
 8002390:	2310      	movs	r3, #16
 8002392:	18fc      	adds	r4, r7, r3
 8002394:	2314      	movs	r3, #20
 8002396:	18fa      	adds	r2, r7, r3
 8002398:	490b      	ldr	r1, [pc, #44]	@ (80023c8 <parseReceivedData+0x4c>)
 800239a:	6878      	ldr	r0, [r7, #4]
 800239c:	230c      	movs	r3, #12
 800239e:	18fb      	adds	r3, r7, r3
 80023a0:	9300      	str	r3, [sp, #0]
 80023a2:	0023      	movs	r3, r4
 80023a4:	f000 f8da 	bl	800255c <siscanf>
 80023a8:	0003      	movs	r3, r0
 80023aa:	2b03      	cmp	r3, #3
 80023ac:	d108      	bne.n	80023c0 <parseReceivedData+0x44>
        conveyor_speed = conveyor;
 80023ae:	697a      	ldr	r2, [r7, #20]
 80023b0:	4b06      	ldr	r3, [pc, #24]	@ (80023cc <parseReceivedData+0x50>)
 80023b2:	601a      	str	r2, [r3, #0]
        fan_speed = fan;
 80023b4:	693a      	ldr	r2, [r7, #16]
 80023b6:	4b06      	ldr	r3, [pc, #24]	@ (80023d0 <parseReceivedData+0x54>)
 80023b8:	601a      	str	r2, [r3, #0]
        internal_temperature_dashboard = temp_control;
 80023ba:	68fa      	ldr	r2, [r7, #12]
 80023bc:	4b05      	ldr	r3, [pc, #20]	@ (80023d4 <parseReceivedData+0x58>)
 80023be:	601a      	str	r2, [r3, #0]
    } else {
        // Handle parsing error if needed
    }
}
 80023c0:	46c0      	nop			@ (mov r8, r8)
 80023c2:	46bd      	mov	sp, r7
 80023c4:	b007      	add	sp, #28
 80023c6:	bd90      	pop	{r4, r7, pc}
 80023c8:	08003824 	.word	0x08003824
 80023cc:	20000084 	.word	0x20000084
 80023d0:	20000080 	.word	0x20000080
 80023d4:	2000007c 	.word	0x2000007c

080023d8 <USART1_IRQHandler>:

void USART1_IRQHandler(void)
{
 80023d8:	b580      	push	{r7, lr}
 80023da:	b082      	sub	sp, #8
 80023dc:	af00      	add	r7, sp, #0
    if (USART1->ISR & USART_ISR_RXNE) // Check if data is received
 80023de:	4b1c      	ldr	r3, [pc, #112]	@ (8002450 <USART1_IRQHandler+0x78>)
 80023e0:	69db      	ldr	r3, [r3, #28]
 80023e2:	2220      	movs	r2, #32
 80023e4:	4013      	ands	r3, r2
 80023e6:	d02e      	beq.n	8002446 <USART1_IRQHandler+0x6e>
    {
        static char rx_buffer[64];
        static uint8_t rx_index = 0;
        char received_char = USART1->RDR; // Read received character
 80023e8:	4b19      	ldr	r3, [pc, #100]	@ (8002450 <USART1_IRQHandler+0x78>)
 80023ea:	8c9b      	ldrh	r3, [r3, #36]	@ 0x24
 80023ec:	b29a      	uxth	r2, r3
 80023ee:	1dfb      	adds	r3, r7, #7
 80023f0:	701a      	strb	r2, [r3, #0]

        if (received_char == '\n') {
 80023f2:	1dfb      	adds	r3, r7, #7
 80023f4:	781b      	ldrb	r3, [r3, #0]
 80023f6:	2b0a      	cmp	r3, #10
 80023f8:	d10d      	bne.n	8002416 <USART1_IRQHandler+0x3e>
            rx_buffer[rx_index] = '\0'; // Null-terminate the string
 80023fa:	4b16      	ldr	r3, [pc, #88]	@ (8002454 <USART1_IRQHandler+0x7c>)
 80023fc:	781b      	ldrb	r3, [r3, #0]
 80023fe:	001a      	movs	r2, r3
 8002400:	4b15      	ldr	r3, [pc, #84]	@ (8002458 <USART1_IRQHandler+0x80>)
 8002402:	2100      	movs	r1, #0
 8002404:	5499      	strb	r1, [r3, r2]
            parseReceivedData(rx_buffer); // Parse the received data
 8002406:	4b14      	ldr	r3, [pc, #80]	@ (8002458 <USART1_IRQHandler+0x80>)
 8002408:	0018      	movs	r0, r3
 800240a:	f7ff ffb7 	bl	800237c <parseReceivedData>
            rx_index = 0; // Reset the buffer index
 800240e:	4b11      	ldr	r3, [pc, #68]	@ (8002454 <USART1_IRQHandler+0x7c>)
 8002410:	2200      	movs	r2, #0
 8002412:	701a      	strb	r2, [r3, #0]
 8002414:	e011      	b.n	800243a <USART1_IRQHandler+0x62>
        } else {
            rx_buffer[rx_index++] = received_char;
 8002416:	4b0f      	ldr	r3, [pc, #60]	@ (8002454 <USART1_IRQHandler+0x7c>)
 8002418:	781b      	ldrb	r3, [r3, #0]
 800241a:	1c5a      	adds	r2, r3, #1
 800241c:	b2d1      	uxtb	r1, r2
 800241e:	4a0d      	ldr	r2, [pc, #52]	@ (8002454 <USART1_IRQHandler+0x7c>)
 8002420:	7011      	strb	r1, [r2, #0]
 8002422:	0019      	movs	r1, r3
 8002424:	4b0c      	ldr	r3, [pc, #48]	@ (8002458 <USART1_IRQHandler+0x80>)
 8002426:	1dfa      	adds	r2, r7, #7
 8002428:	7812      	ldrb	r2, [r2, #0]
 800242a:	545a      	strb	r2, [r3, r1]
            if (rx_index >= sizeof(rx_buffer) - 1) {
 800242c:	4b09      	ldr	r3, [pc, #36]	@ (8002454 <USART1_IRQHandler+0x7c>)
 800242e:	781b      	ldrb	r3, [r3, #0]
 8002430:	2b3e      	cmp	r3, #62	@ 0x3e
 8002432:	d902      	bls.n	800243a <USART1_IRQHandler+0x62>
                rx_index = 0; // Prevent buffer overflow
 8002434:	4b07      	ldr	r3, [pc, #28]	@ (8002454 <USART1_IRQHandler+0x7c>)
 8002436:	2200      	movs	r2, #0
 8002438:	701a      	strb	r2, [r3, #0]
            }
        }
        USART1->ICR |= USART_ICR_ORECF; // Clear overrun error flag
 800243a:	4b05      	ldr	r3, [pc, #20]	@ (8002450 <USART1_IRQHandler+0x78>)
 800243c:	6a1a      	ldr	r2, [r3, #32]
 800243e:	4b04      	ldr	r3, [pc, #16]	@ (8002450 <USART1_IRQHandler+0x78>)
 8002440:	2108      	movs	r1, #8
 8002442:	430a      	orrs	r2, r1
 8002444:	621a      	str	r2, [r3, #32]
    }
}
 8002446:	46c0      	nop			@ (mov r8, r8)
 8002448:	46bd      	mov	sp, r7
 800244a:	b002      	add	sp, #8
 800244c:	bd80      	pop	{r7, pc}
 800244e:	46c0      	nop			@ (mov r8, r8)
 8002450:	40013800 	.word	0x40013800
 8002454:	200000b4 	.word	0x200000b4
 8002458:	200000b8 	.word	0x200000b8

0800245c <_sbrk>:
 *
 * @param incr Memory size
 * @return Pointer to allocated memory
 */
void *_sbrk(ptrdiff_t incr)
{
 800245c:	b580      	push	{r7, lr}
 800245e:	b086      	sub	sp, #24
 8002460:	af00      	add	r7, sp, #0
 8002462:	6078      	str	r0, [r7, #4]
  extern uint8_t _end; /* Symbol defined in the linker script */
  extern uint8_t _estack; /* Symbol defined in the linker script */
  extern uint32_t _Min_Stack_Size; /* Symbol defined in the linker script */
  const uint32_t stack_limit = (uint32_t)&_estack - (uint32_t)&_Min_Stack_Size;
 8002464:	4a14      	ldr	r2, [pc, #80]	@ (80024b8 <_sbrk+0x5c>)
 8002466:	4b15      	ldr	r3, [pc, #84]	@ (80024bc <_sbrk+0x60>)
 8002468:	1ad3      	subs	r3, r2, r3
 800246a:	617b      	str	r3, [r7, #20]
  const uint8_t *max_heap = (uint8_t *)stack_limit;
 800246c:	697b      	ldr	r3, [r7, #20]
 800246e:	613b      	str	r3, [r7, #16]
  uint8_t *prev_heap_end;

  /* Initialize heap end at first call */
  if (NULL == __sbrk_heap_end)
 8002470:	4b13      	ldr	r3, [pc, #76]	@ (80024c0 <_sbrk+0x64>)
 8002472:	681b      	ldr	r3, [r3, #0]
 8002474:	2b00      	cmp	r3, #0
 8002476:	d102      	bne.n	800247e <_sbrk+0x22>
  {
    __sbrk_heap_end = &_end;
 8002478:	4b11      	ldr	r3, [pc, #68]	@ (80024c0 <_sbrk+0x64>)
 800247a:	4a12      	ldr	r2, [pc, #72]	@ (80024c4 <_sbrk+0x68>)
 800247c:	601a      	str	r2, [r3, #0]
  }

  /* Protect heap from growing into the reserved MSP stack */
  if (__sbrk_heap_end + incr > max_heap)
 800247e:	4b10      	ldr	r3, [pc, #64]	@ (80024c0 <_sbrk+0x64>)
 8002480:	681a      	ldr	r2, [r3, #0]
 8002482:	687b      	ldr	r3, [r7, #4]
 8002484:	18d3      	adds	r3, r2, r3
 8002486:	693a      	ldr	r2, [r7, #16]
 8002488:	429a      	cmp	r2, r3
 800248a:	d207      	bcs.n	800249c <_sbrk+0x40>
  {
    errno = ENOMEM;
 800248c:	f000 f890 	bl	80025b0 <__errno>
 8002490:	0003      	movs	r3, r0
 8002492:	220c      	movs	r2, #12
 8002494:	601a      	str	r2, [r3, #0]
    return (void *)-1;
 8002496:	2301      	movs	r3, #1
 8002498:	425b      	negs	r3, r3
 800249a:	e009      	b.n	80024b0 <_sbrk+0x54>
  }

  prev_heap_end = __sbrk_heap_end;
 800249c:	4b08      	ldr	r3, [pc, #32]	@ (80024c0 <_sbrk+0x64>)
 800249e:	681b      	ldr	r3, [r3, #0]
 80024a0:	60fb      	str	r3, [r7, #12]
  __sbrk_heap_end += incr;
 80024a2:	4b07      	ldr	r3, [pc, #28]	@ (80024c0 <_sbrk+0x64>)
 80024a4:	681a      	ldr	r2, [r3, #0]
 80024a6:	687b      	ldr	r3, [r7, #4]
 80024a8:	18d2      	adds	r2, r2, r3
 80024aa:	4b05      	ldr	r3, [pc, #20]	@ (80024c0 <_sbrk+0x64>)
 80024ac:	601a      	str	r2, [r3, #0]

  return (void *)prev_heap_end;
 80024ae:	68fb      	ldr	r3, [r7, #12]
}
 80024b0:	0018      	movs	r0, r3
 80024b2:	46bd      	mov	sp, r7
 80024b4:	b006      	add	sp, #24
 80024b6:	bd80      	pop	{r7, pc}
 80024b8:	20002000 	.word	0x20002000
 80024bc:	00000400 	.word	0x00000400
 80024c0:	200000f8 	.word	0x200000f8
 80024c4:	20000248 	.word	0x20000248

080024c8 <Reset_Handler>:

  .section .text.Reset_Handler
  .weak Reset_Handler
  .type Reset_Handler, %function
Reset_Handler:
  ldr   r0, =_estack
 80024c8:	480d      	ldr	r0, [pc, #52]	@ (8002500 <LoopForever+0x2>)
  mov   sp, r0          /* set stack pointer */
 80024ca:	4685      	mov	sp, r0
/* Call the clock system initialization function.*/
  bl  SystemInit
 80024cc:	e000      	b.n	80024d0 <Reset_Handler+0x8>
 80024ce:	bf00      	nop

/* Copy the data segment initializers from flash to SRAM */
  ldr r0, =_sdata
 80024d0:	480c      	ldr	r0, [pc, #48]	@ (8002504 <LoopForever+0x6>)
  ldr r1, =_edata
 80024d2:	490d      	ldr	r1, [pc, #52]	@ (8002508 <LoopForever+0xa>)
  ldr r2, =_sidata
 80024d4:	4a0d      	ldr	r2, [pc, #52]	@ (800250c <LoopForever+0xe>)
  movs r3, #0
 80024d6:	2300      	movs	r3, #0
  b LoopCopyDataInit
 80024d8:	e002      	b.n	80024e0 <LoopCopyDataInit>

080024da <CopyDataInit>:

CopyDataInit:
  ldr r4, [r2, r3]
 80024da:	58d4      	ldr	r4, [r2, r3]
  str r4, [r0, r3]
 80024dc:	50c4      	str	r4, [r0, r3]
  adds r3, r3, #4
 80024de:	3304      	adds	r3, #4

080024e0 <LoopCopyDataInit>:

LoopCopyDataInit:
  adds r4, r0, r3
 80024e0:	18c4      	adds	r4, r0, r3
  cmp r4, r1
 80024e2:	428c      	cmp	r4, r1
  bcc CopyDataInit
 80024e4:	d3f9      	bcc.n	80024da <CopyDataInit>

/* Zero fill the bss segment. */
  ldr r2, =_sbss
 80024e6:	4a0a      	ldr	r2, [pc, #40]	@ (8002510 <LoopForever+0x12>)
  ldr r4, =_ebss
 80024e8:	4c0a      	ldr	r4, [pc, #40]	@ (8002514 <LoopForever+0x16>)
  movs r3, #0
 80024ea:	2300      	movs	r3, #0
  b LoopFillZerobss
 80024ec:	e001      	b.n	80024f2 <LoopFillZerobss>

080024ee <FillZerobss>:

FillZerobss:
  str  r3, [r2]
 80024ee:	6013      	str	r3, [r2, #0]
  adds r2, r2, #4
 80024f0:	3204      	adds	r2, #4

080024f2 <LoopFillZerobss>:

LoopFillZerobss:
  cmp r2, r4
 80024f2:	42a2      	cmp	r2, r4
  bcc FillZerobss
 80024f4:	d3fb      	bcc.n	80024ee <FillZerobss>

/* Call static constructors */
  bl __libc_init_array
 80024f6:	f000 f861 	bl	80025bc <__libc_init_array>
/* Call the application's entry point.*/
  bl main
 80024fa:	f7ff feb7 	bl	800226c <main>

080024fe <LoopForever>:

LoopForever:
  b LoopForever
 80024fe:	e7fe      	b.n	80024fe <LoopForever>
  ldr   r0, =_estack
 8002500:	20002000 	.word	0x20002000
  ldr r0, =_sdata
 8002504:	20000000 	.word	0x20000000
  ldr r1, =_edata
 8002508:	2000005c 	.word	0x2000005c
  ldr r2, =_sidata
 800250c:	080039d8 	.word	0x080039d8
  ldr r2, =_sbss
 8002510:	2000005c 	.word	0x2000005c
  ldr r4, =_ebss
 8002514:	20000244 	.word	0x20000244

08002518 <CEC_CAN_IRQHandler>:
 * @retval : None
*/
  .section .text.Default_Handler,"ax",%progbits
Default_Handler:
Infinite_Loop:
  b Infinite_Loop
 8002518:	e7fe      	b.n	8002518 <CEC_CAN_IRQHandler>
	...

0800251c <siprintf>:
 800251c:	b40e      	push	{r1, r2, r3}
 800251e:	b500      	push	{lr}
 8002520:	490b      	ldr	r1, [pc, #44]	@ (8002550 <siprintf+0x34>)
 8002522:	b09c      	sub	sp, #112	@ 0x70
 8002524:	ab1d      	add	r3, sp, #116	@ 0x74
 8002526:	9002      	str	r0, [sp, #8]
 8002528:	9006      	str	r0, [sp, #24]
 800252a:	9107      	str	r1, [sp, #28]
 800252c:	9104      	str	r1, [sp, #16]
 800252e:	4809      	ldr	r0, [pc, #36]	@ (8002554 <siprintf+0x38>)
 8002530:	4909      	ldr	r1, [pc, #36]	@ (8002558 <siprintf+0x3c>)
 8002532:	cb04      	ldmia	r3!, {r2}
 8002534:	9105      	str	r1, [sp, #20]
 8002536:	6800      	ldr	r0, [r0, #0]
 8002538:	a902      	add	r1, sp, #8
 800253a:	9301      	str	r3, [sp, #4]
 800253c:	f000 f9c0 	bl	80028c0 <_svfiprintf_r>
 8002540:	2200      	movs	r2, #0
 8002542:	9b02      	ldr	r3, [sp, #8]
 8002544:	701a      	strb	r2, [r3, #0]
 8002546:	b01c      	add	sp, #112	@ 0x70
 8002548:	bc08      	pop	{r3}
 800254a:	b003      	add	sp, #12
 800254c:	4718      	bx	r3
 800254e:	46c0      	nop			@ (mov r8, r8)
 8002550:	7fffffff 	.word	0x7fffffff
 8002554:	2000000c 	.word	0x2000000c
 8002558:	ffff0208 	.word	0xffff0208

0800255c <siscanf>:
 800255c:	b40e      	push	{r1, r2, r3}
 800255e:	b530      	push	{r4, r5, lr}
 8002560:	2381      	movs	r3, #129	@ 0x81
 8002562:	b09c      	sub	sp, #112	@ 0x70
 8002564:	466a      	mov	r2, sp
 8002566:	ac1f      	add	r4, sp, #124	@ 0x7c
 8002568:	009b      	lsls	r3, r3, #2
 800256a:	cc20      	ldmia	r4!, {r5}
 800256c:	8293      	strh	r3, [r2, #20]
 800256e:	9002      	str	r0, [sp, #8]
 8002570:	9006      	str	r0, [sp, #24]
 8002572:	f7fd fdc9 	bl	8000108 <strlen>
 8002576:	4b0b      	ldr	r3, [pc, #44]	@ (80025a4 <siscanf+0x48>)
 8002578:	466a      	mov	r2, sp
 800257a:	930b      	str	r3, [sp, #44]	@ 0x2c
 800257c:	2300      	movs	r3, #0
 800257e:	9003      	str	r0, [sp, #12]
 8002580:	9007      	str	r0, [sp, #28]
 8002582:	4809      	ldr	r0, [pc, #36]	@ (80025a8 <siscanf+0x4c>)
 8002584:	930f      	str	r3, [sp, #60]	@ 0x3c
 8002586:	9314      	str	r3, [sp, #80]	@ 0x50
 8002588:	3b01      	subs	r3, #1
 800258a:	82d3      	strh	r3, [r2, #22]
 800258c:	a902      	add	r1, sp, #8
 800258e:	0023      	movs	r3, r4
 8002590:	002a      	movs	r2, r5
 8002592:	6800      	ldr	r0, [r0, #0]
 8002594:	9401      	str	r4, [sp, #4]
 8002596:	f000 faed 	bl	8002b74 <__ssvfiscanf_r>
 800259a:	b01c      	add	sp, #112	@ 0x70
 800259c:	bc30      	pop	{r4, r5}
 800259e:	bc08      	pop	{r3}
 80025a0:	b003      	add	sp, #12
 80025a2:	4718      	bx	r3
 80025a4:	080025ad 	.word	0x080025ad
 80025a8:	2000000c 	.word	0x2000000c

080025ac <__seofread>:
 80025ac:	2000      	movs	r0, #0
 80025ae:	4770      	bx	lr

080025b0 <__errno>:
 80025b0:	4b01      	ldr	r3, [pc, #4]	@ (80025b8 <__errno+0x8>)
 80025b2:	6818      	ldr	r0, [r3, #0]
 80025b4:	4770      	bx	lr
 80025b6:	46c0      	nop			@ (mov r8, r8)
 80025b8:	2000000c 	.word	0x2000000c

080025bc <__libc_init_array>:
 80025bc:	b570      	push	{r4, r5, r6, lr}
 80025be:	2600      	movs	r6, #0
 80025c0:	4c0c      	ldr	r4, [pc, #48]	@ (80025f4 <__libc_init_array+0x38>)
 80025c2:	4d0d      	ldr	r5, [pc, #52]	@ (80025f8 <__libc_init_array+0x3c>)
 80025c4:	1b64      	subs	r4, r4, r5
 80025c6:	10a4      	asrs	r4, r4, #2
 80025c8:	42a6      	cmp	r6, r4
 80025ca:	d109      	bne.n	80025e0 <__libc_init_array+0x24>
 80025cc:	2600      	movs	r6, #0
 80025ce:	f001 f90f 	bl	80037f0 <_init>
 80025d2:	4c0a      	ldr	r4, [pc, #40]	@ (80025fc <__libc_init_array+0x40>)
 80025d4:	4d0a      	ldr	r5, [pc, #40]	@ (8002600 <__libc_init_array+0x44>)
 80025d6:	1b64      	subs	r4, r4, r5
 80025d8:	10a4      	asrs	r4, r4, #2
 80025da:	42a6      	cmp	r6, r4
 80025dc:	d105      	bne.n	80025ea <__libc_init_array+0x2e>
 80025de:	bd70      	pop	{r4, r5, r6, pc}
 80025e0:	00b3      	lsls	r3, r6, #2
 80025e2:	58eb      	ldr	r3, [r5, r3]
 80025e4:	4798      	blx	r3
 80025e6:	3601      	adds	r6, #1
 80025e8:	e7ee      	b.n	80025c8 <__libc_init_array+0xc>
 80025ea:	00b3      	lsls	r3, r6, #2
 80025ec:	58eb      	ldr	r3, [r5, r3]
 80025ee:	4798      	blx	r3
 80025f0:	3601      	adds	r6, #1
 80025f2:	e7f2      	b.n	80025da <__libc_init_array+0x1e>
 80025f4:	080039d0 	.word	0x080039d0
 80025f8:	080039d0 	.word	0x080039d0
 80025fc:	080039d4 	.word	0x080039d4
 8002600:	080039d0 	.word	0x080039d0

08002604 <__retarget_lock_acquire_recursive>:
 8002604:	4770      	bx	lr

08002606 <__retarget_lock_release_recursive>:
 8002606:	4770      	bx	lr

08002608 <_free_r>:
 8002608:	b570      	push	{r4, r5, r6, lr}
 800260a:	0005      	movs	r5, r0
 800260c:	1e0c      	subs	r4, r1, #0
 800260e:	d010      	beq.n	8002632 <_free_r+0x2a>
 8002610:	3c04      	subs	r4, #4
 8002612:	6823      	ldr	r3, [r4, #0]
 8002614:	2b00      	cmp	r3, #0
 8002616:	da00      	bge.n	800261a <_free_r+0x12>
 8002618:	18e4      	adds	r4, r4, r3
 800261a:	0028      	movs	r0, r5
 800261c:	f000 f8e0 	bl	80027e0 <__malloc_lock>
 8002620:	4a1d      	ldr	r2, [pc, #116]	@ (8002698 <_free_r+0x90>)
 8002622:	6813      	ldr	r3, [r2, #0]
 8002624:	2b00      	cmp	r3, #0
 8002626:	d105      	bne.n	8002634 <_free_r+0x2c>
 8002628:	6063      	str	r3, [r4, #4]
 800262a:	6014      	str	r4, [r2, #0]
 800262c:	0028      	movs	r0, r5
 800262e:	f000 f8df 	bl	80027f0 <__malloc_unlock>
 8002632:	bd70      	pop	{r4, r5, r6, pc}
 8002634:	42a3      	cmp	r3, r4
 8002636:	d908      	bls.n	800264a <_free_r+0x42>
 8002638:	6820      	ldr	r0, [r4, #0]
 800263a:	1821      	adds	r1, r4, r0
 800263c:	428b      	cmp	r3, r1
 800263e:	d1f3      	bne.n	8002628 <_free_r+0x20>
 8002640:	6819      	ldr	r1, [r3, #0]
 8002642:	685b      	ldr	r3, [r3, #4]
 8002644:	1809      	adds	r1, r1, r0
 8002646:	6021      	str	r1, [r4, #0]
 8002648:	e7ee      	b.n	8002628 <_free_r+0x20>
 800264a:	001a      	movs	r2, r3
 800264c:	685b      	ldr	r3, [r3, #4]
 800264e:	2b00      	cmp	r3, #0
 8002650:	d001      	beq.n	8002656 <_free_r+0x4e>
 8002652:	42a3      	cmp	r3, r4
 8002654:	d9f9      	bls.n	800264a <_free_r+0x42>
 8002656:	6811      	ldr	r1, [r2, #0]
 8002658:	1850      	adds	r0, r2, r1
 800265a:	42a0      	cmp	r0, r4
 800265c:	d10b      	bne.n	8002676 <_free_r+0x6e>
 800265e:	6820      	ldr	r0, [r4, #0]
 8002660:	1809      	adds	r1, r1, r0
 8002662:	1850      	adds	r0, r2, r1
 8002664:	6011      	str	r1, [r2, #0]
 8002666:	4283      	cmp	r3, r0
 8002668:	d1e0      	bne.n	800262c <_free_r+0x24>
 800266a:	6818      	ldr	r0, [r3, #0]
 800266c:	685b      	ldr	r3, [r3, #4]
 800266e:	1841      	adds	r1, r0, r1
 8002670:	6011      	str	r1, [r2, #0]
 8002672:	6053      	str	r3, [r2, #4]
 8002674:	e7da      	b.n	800262c <_free_r+0x24>
 8002676:	42a0      	cmp	r0, r4
 8002678:	d902      	bls.n	8002680 <_free_r+0x78>
 800267a:	230c      	movs	r3, #12
 800267c:	602b      	str	r3, [r5, #0]
 800267e:	e7d5      	b.n	800262c <_free_r+0x24>
 8002680:	6820      	ldr	r0, [r4, #0]
 8002682:	1821      	adds	r1, r4, r0
 8002684:	428b      	cmp	r3, r1
 8002686:	d103      	bne.n	8002690 <_free_r+0x88>
 8002688:	6819      	ldr	r1, [r3, #0]
 800268a:	685b      	ldr	r3, [r3, #4]
 800268c:	1809      	adds	r1, r1, r0
 800268e:	6021      	str	r1, [r4, #0]
 8002690:	6063      	str	r3, [r4, #4]
 8002692:	6054      	str	r4, [r2, #4]
 8002694:	e7ca      	b.n	800262c <_free_r+0x24>
 8002696:	46c0      	nop			@ (mov r8, r8)
 8002698:	20000240 	.word	0x20000240

0800269c <sbrk_aligned>:
 800269c:	b570      	push	{r4, r5, r6, lr}
 800269e:	4e0f      	ldr	r6, [pc, #60]	@ (80026dc <sbrk_aligned+0x40>)
 80026a0:	000d      	movs	r5, r1
 80026a2:	6831      	ldr	r1, [r6, #0]
 80026a4:	0004      	movs	r4, r0
 80026a6:	2900      	cmp	r1, #0
 80026a8:	d102      	bne.n	80026b0 <sbrk_aligned+0x14>
 80026aa:	f000 ff2f 	bl	800350c <_sbrk_r>
 80026ae:	6030      	str	r0, [r6, #0]
 80026b0:	0029      	movs	r1, r5
 80026b2:	0020      	movs	r0, r4
 80026b4:	f000 ff2a 	bl	800350c <_sbrk_r>
 80026b8:	1c43      	adds	r3, r0, #1
 80026ba:	d103      	bne.n	80026c4 <sbrk_aligned+0x28>
 80026bc:	2501      	movs	r5, #1
 80026be:	426d      	negs	r5, r5
 80026c0:	0028      	movs	r0, r5
 80026c2:	bd70      	pop	{r4, r5, r6, pc}
 80026c4:	2303      	movs	r3, #3
 80026c6:	1cc5      	adds	r5, r0, #3
 80026c8:	439d      	bics	r5, r3
 80026ca:	42a8      	cmp	r0, r5
 80026cc:	d0f8      	beq.n	80026c0 <sbrk_aligned+0x24>
 80026ce:	1a29      	subs	r1, r5, r0
 80026d0:	0020      	movs	r0, r4
 80026d2:	f000 ff1b 	bl	800350c <_sbrk_r>
 80026d6:	3001      	adds	r0, #1
 80026d8:	d1f2      	bne.n	80026c0 <sbrk_aligned+0x24>
 80026da:	e7ef      	b.n	80026bc <sbrk_aligned+0x20>
 80026dc:	2000023c 	.word	0x2000023c

080026e0 <_malloc_r>:
 80026e0:	b5f7      	push	{r0, r1, r2, r4, r5, r6, r7, lr}
 80026e2:	2203      	movs	r2, #3
 80026e4:	1ccb      	adds	r3, r1, #3
 80026e6:	4393      	bics	r3, r2
 80026e8:	3308      	adds	r3, #8
 80026ea:	0005      	movs	r5, r0
 80026ec:	001f      	movs	r7, r3
 80026ee:	2b0c      	cmp	r3, #12
 80026f0:	d234      	bcs.n	800275c <_malloc_r+0x7c>
 80026f2:	270c      	movs	r7, #12
 80026f4:	42b9      	cmp	r1, r7
 80026f6:	d833      	bhi.n	8002760 <_malloc_r+0x80>
 80026f8:	0028      	movs	r0, r5
 80026fa:	f000 f871 	bl	80027e0 <__malloc_lock>
 80026fe:	4e37      	ldr	r6, [pc, #220]	@ (80027dc <_malloc_r+0xfc>)
 8002700:	6833      	ldr	r3, [r6, #0]
 8002702:	001c      	movs	r4, r3
 8002704:	2c00      	cmp	r4, #0
 8002706:	d12f      	bne.n	8002768 <_malloc_r+0x88>
 8002708:	0039      	movs	r1, r7
 800270a:	0028      	movs	r0, r5
 800270c:	f7ff ffc6 	bl	800269c <sbrk_aligned>
 8002710:	0004      	movs	r4, r0
 8002712:	1c43      	adds	r3, r0, #1
 8002714:	d15f      	bne.n	80027d6 <_malloc_r+0xf6>
 8002716:	6834      	ldr	r4, [r6, #0]
 8002718:	9400      	str	r4, [sp, #0]
 800271a:	9b00      	ldr	r3, [sp, #0]
 800271c:	2b00      	cmp	r3, #0
 800271e:	d14a      	bne.n	80027b6 <_malloc_r+0xd6>
 8002720:	2c00      	cmp	r4, #0
 8002722:	d052      	beq.n	80027ca <_malloc_r+0xea>
 8002724:	6823      	ldr	r3, [r4, #0]
 8002726:	0028      	movs	r0, r5
 8002728:	18e3      	adds	r3, r4, r3
 800272a:	9900      	ldr	r1, [sp, #0]
 800272c:	9301      	str	r3, [sp, #4]
 800272e:	f000 feed 	bl	800350c <_sbrk_r>
 8002732:	9b01      	ldr	r3, [sp, #4]
 8002734:	4283      	cmp	r3, r0
 8002736:	d148      	bne.n	80027ca <_malloc_r+0xea>
 8002738:	6823      	ldr	r3, [r4, #0]
 800273a:	0028      	movs	r0, r5
 800273c:	1aff      	subs	r7, r7, r3
 800273e:	0039      	movs	r1, r7
 8002740:	f7ff ffac 	bl	800269c <sbrk_aligned>
 8002744:	3001      	adds	r0, #1
 8002746:	d040      	beq.n	80027ca <_malloc_r+0xea>
 8002748:	6823      	ldr	r3, [r4, #0]
 800274a:	19db      	adds	r3, r3, r7
 800274c:	6023      	str	r3, [r4, #0]
 800274e:	6833      	ldr	r3, [r6, #0]
 8002750:	685a      	ldr	r2, [r3, #4]
 8002752:	2a00      	cmp	r2, #0
 8002754:	d133      	bne.n	80027be <_malloc_r+0xde>
 8002756:	9b00      	ldr	r3, [sp, #0]
 8002758:	6033      	str	r3, [r6, #0]
 800275a:	e019      	b.n	8002790 <_malloc_r+0xb0>
 800275c:	2b00      	cmp	r3, #0
 800275e:	dac9      	bge.n	80026f4 <_malloc_r+0x14>
 8002760:	230c      	movs	r3, #12
 8002762:	602b      	str	r3, [r5, #0]
 8002764:	2000      	movs	r0, #0
 8002766:	bdfe      	pop	{r1, r2, r3, r4, r5, r6, r7, pc}
 8002768:	6821      	ldr	r1, [r4, #0]
 800276a:	1bc9      	subs	r1, r1, r7
 800276c:	d420      	bmi.n	80027b0 <_malloc_r+0xd0>
 800276e:	290b      	cmp	r1, #11
 8002770:	d90a      	bls.n	8002788 <_malloc_r+0xa8>
 8002772:	19e2      	adds	r2, r4, r7
 8002774:	6027      	str	r7, [r4, #0]
 8002776:	42a3      	cmp	r3, r4
 8002778:	d104      	bne.n	8002784 <_malloc_r+0xa4>
 800277a:	6032      	str	r2, [r6, #0]
 800277c:	6863      	ldr	r3, [r4, #4]
 800277e:	6011      	str	r1, [r2, #0]
 8002780:	6053      	str	r3, [r2, #4]
 8002782:	e005      	b.n	8002790 <_malloc_r+0xb0>
 8002784:	605a      	str	r2, [r3, #4]
 8002786:	e7f9      	b.n	800277c <_malloc_r+0x9c>
 8002788:	6862      	ldr	r2, [r4, #4]
 800278a:	42a3      	cmp	r3, r4
 800278c:	d10e      	bne.n	80027ac <_malloc_r+0xcc>
 800278e:	6032      	str	r2, [r6, #0]
 8002790:	0028      	movs	r0, r5
 8002792:	f000 f82d 	bl	80027f0 <__malloc_unlock>
 8002796:	0020      	movs	r0, r4
 8002798:	2207      	movs	r2, #7
 800279a:	300b      	adds	r0, #11
 800279c:	1d23      	adds	r3, r4, #4
 800279e:	4390      	bics	r0, r2
 80027a0:	1ac2      	subs	r2, r0, r3
 80027a2:	4298      	cmp	r0, r3
 80027a4:	d0df      	beq.n	8002766 <_malloc_r+0x86>
 80027a6:	1a1b      	subs	r3, r3, r0
 80027a8:	50a3      	str	r3, [r4, r2]
 80027aa:	e7dc      	b.n	8002766 <_malloc_r+0x86>
 80027ac:	605a      	str	r2, [r3, #4]
 80027ae:	e7ef      	b.n	8002790 <_malloc_r+0xb0>
 80027b0:	0023      	movs	r3, r4
 80027b2:	6864      	ldr	r4, [r4, #4]
 80027b4:	e7a6      	b.n	8002704 <_malloc_r+0x24>
 80027b6:	9c00      	ldr	r4, [sp, #0]
 80027b8:	6863      	ldr	r3, [r4, #4]
 80027ba:	9300      	str	r3, [sp, #0]
 80027bc:	e7ad      	b.n	800271a <_malloc_r+0x3a>
 80027be:	001a      	movs	r2, r3
 80027c0:	685b      	ldr	r3, [r3, #4]
 80027c2:	42a3      	cmp	r3, r4
 80027c4:	d1fb      	bne.n	80027be <_malloc_r+0xde>
 80027c6:	2300      	movs	r3, #0
 80027c8:	e7da      	b.n	8002780 <_malloc_r+0xa0>
 80027ca:	230c      	movs	r3, #12
 80027cc:	0028      	movs	r0, r5
 80027ce:	602b      	str	r3, [r5, #0]
 80027d0:	f000 f80e 	bl	80027f0 <__malloc_unlock>
 80027d4:	e7c6      	b.n	8002764 <_malloc_r+0x84>
 80027d6:	6007      	str	r7, [r0, #0]
 80027d8:	e7da      	b.n	8002790 <_malloc_r+0xb0>
 80027da:	46c0      	nop			@ (mov r8, r8)
 80027dc:	20000240 	.word	0x20000240

080027e0 <__malloc_lock>:
 80027e0:	b510      	push	{r4, lr}
 80027e2:	4802      	ldr	r0, [pc, #8]	@ (80027ec <__malloc_lock+0xc>)
 80027e4:	f7ff ff0e 	bl	8002604 <__retarget_lock_acquire_recursive>
 80027e8:	bd10      	pop	{r4, pc}
 80027ea:	46c0      	nop			@ (mov r8, r8)
 80027ec:	20000238 	.word	0x20000238

080027f0 <__malloc_unlock>:
 80027f0:	b510      	push	{r4, lr}
 80027f2:	4802      	ldr	r0, [pc, #8]	@ (80027fc <__malloc_unlock+0xc>)
 80027f4:	f7ff ff07 	bl	8002606 <__retarget_lock_release_recursive>
 80027f8:	bd10      	pop	{r4, pc}
 80027fa:	46c0      	nop			@ (mov r8, r8)
 80027fc:	20000238 	.word	0x20000238

08002800 <__ssputs_r>:
 8002800:	b5f0      	push	{r4, r5, r6, r7, lr}
 8002802:	688e      	ldr	r6, [r1, #8]
 8002804:	b085      	sub	sp, #20
 8002806:	001f      	movs	r7, r3
 8002808:	000c      	movs	r4, r1
 800280a:	680b      	ldr	r3, [r1, #0]
 800280c:	9002      	str	r0, [sp, #8]
 800280e:	9203      	str	r2, [sp, #12]
 8002810:	42be      	cmp	r6, r7
 8002812:	d830      	bhi.n	8002876 <__ssputs_r+0x76>
 8002814:	210c      	movs	r1, #12
 8002816:	5e62      	ldrsh	r2, [r4, r1]
 8002818:	2190      	movs	r1, #144	@ 0x90
 800281a:	00c9      	lsls	r1, r1, #3
 800281c:	420a      	tst	r2, r1
 800281e:	d028      	beq.n	8002872 <__ssputs_r+0x72>
 8002820:	2003      	movs	r0, #3
 8002822:	6921      	ldr	r1, [r4, #16]
 8002824:	1a5b      	subs	r3, r3, r1
 8002826:	9301      	str	r3, [sp, #4]
 8002828:	6963      	ldr	r3, [r4, #20]
 800282a:	4343      	muls	r3, r0
 800282c:	9801      	ldr	r0, [sp, #4]
 800282e:	0fdd      	lsrs	r5, r3, #31
 8002830:	18ed      	adds	r5, r5, r3
 8002832:	1c7b      	adds	r3, r7, #1
 8002834:	181b      	adds	r3, r3, r0
 8002836:	106d      	asrs	r5, r5, #1
 8002838:	42ab      	cmp	r3, r5
 800283a:	d900      	bls.n	800283e <__ssputs_r+0x3e>
 800283c:	001d      	movs	r5, r3
 800283e:	0552      	lsls	r2, r2, #21
 8002840:	d528      	bpl.n	8002894 <__ssputs_r+0x94>
 8002842:	0029      	movs	r1, r5
 8002844:	9802      	ldr	r0, [sp, #8]
 8002846:	f7ff ff4b 	bl	80026e0 <_malloc_r>
 800284a:	1e06      	subs	r6, r0, #0
 800284c:	d02c      	beq.n	80028a8 <__ssputs_r+0xa8>
 800284e:	9a01      	ldr	r2, [sp, #4]
 8002850:	6921      	ldr	r1, [r4, #16]
 8002852:	f000 fe78 	bl	8003546 <memcpy>
 8002856:	89a2      	ldrh	r2, [r4, #12]
 8002858:	4b18      	ldr	r3, [pc, #96]	@ (80028bc <__ssputs_r+0xbc>)
 800285a:	401a      	ands	r2, r3
 800285c:	2380      	movs	r3, #128	@ 0x80
 800285e:	4313      	orrs	r3, r2
 8002860:	81a3      	strh	r3, [r4, #12]
 8002862:	9b01      	ldr	r3, [sp, #4]
 8002864:	6126      	str	r6, [r4, #16]
 8002866:	18f6      	adds	r6, r6, r3
 8002868:	6026      	str	r6, [r4, #0]
 800286a:	003e      	movs	r6, r7
 800286c:	6165      	str	r5, [r4, #20]
 800286e:	1aed      	subs	r5, r5, r3
 8002870:	60a5      	str	r5, [r4, #8]
 8002872:	42be      	cmp	r6, r7
 8002874:	d900      	bls.n	8002878 <__ssputs_r+0x78>
 8002876:	003e      	movs	r6, r7
 8002878:	0032      	movs	r2, r6
 800287a:	9903      	ldr	r1, [sp, #12]
 800287c:	6820      	ldr	r0, [r4, #0]
 800287e:	f000 fe31 	bl	80034e4 <memmove>
 8002882:	2000      	movs	r0, #0
 8002884:	68a3      	ldr	r3, [r4, #8]
 8002886:	1b9b      	subs	r3, r3, r6
 8002888:	60a3      	str	r3, [r4, #8]
 800288a:	6823      	ldr	r3, [r4, #0]
 800288c:	199b      	adds	r3, r3, r6
 800288e:	6023      	str	r3, [r4, #0]
 8002890:	b005      	add	sp, #20
 8002892:	bdf0      	pop	{r4, r5, r6, r7, pc}
 8002894:	002a      	movs	r2, r5
 8002896:	9802      	ldr	r0, [sp, #8]
 8002898:	f000 fe5e 	bl	8003558 <_realloc_r>
 800289c:	1e06      	subs	r6, r0, #0
 800289e:	d1e0      	bne.n	8002862 <__ssputs_r+0x62>
 80028a0:	6921      	ldr	r1, [r4, #16]
 80028a2:	9802      	ldr	r0, [sp, #8]
 80028a4:	f7ff feb0 	bl	8002608 <_free_r>
 80028a8:	230c      	movs	r3, #12
 80028aa:	2001      	movs	r0, #1
 80028ac:	9a02      	ldr	r2, [sp, #8]
 80028ae:	4240      	negs	r0, r0
 80028b0:	6013      	str	r3, [r2, #0]
 80028b2:	89a2      	ldrh	r2, [r4, #12]
 80028b4:	3334      	adds	r3, #52	@ 0x34
 80028b6:	4313      	orrs	r3, r2
 80028b8:	81a3      	strh	r3, [r4, #12]
 80028ba:	e7e9      	b.n	8002890 <__ssputs_r+0x90>
 80028bc:	fffffb7f 	.word	0xfffffb7f

080028c0 <_svfiprintf_r>:
 80028c0:	b5f0      	push	{r4, r5, r6, r7, lr}
 80028c2:	b0a1      	sub	sp, #132	@ 0x84
 80028c4:	9003      	str	r0, [sp, #12]
 80028c6:	001d      	movs	r5, r3
 80028c8:	898b      	ldrh	r3, [r1, #12]
 80028ca:	000f      	movs	r7, r1
 80028cc:	0016      	movs	r6, r2
 80028ce:	061b      	lsls	r3, r3, #24
 80028d0:	d511      	bpl.n	80028f6 <_svfiprintf_r+0x36>
 80028d2:	690b      	ldr	r3, [r1, #16]
 80028d4:	2b00      	cmp	r3, #0
 80028d6:	d10e      	bne.n	80028f6 <_svfiprintf_r+0x36>
 80028d8:	2140      	movs	r1, #64	@ 0x40
 80028da:	f7ff ff01 	bl	80026e0 <_malloc_r>
 80028de:	6038      	str	r0, [r7, #0]
 80028e0:	6138      	str	r0, [r7, #16]
 80028e2:	2800      	cmp	r0, #0
 80028e4:	d105      	bne.n	80028f2 <_svfiprintf_r+0x32>
 80028e6:	230c      	movs	r3, #12
 80028e8:	9a03      	ldr	r2, [sp, #12]
 80028ea:	6013      	str	r3, [r2, #0]
 80028ec:	2001      	movs	r0, #1
 80028ee:	4240      	negs	r0, r0
 80028f0:	e0cf      	b.n	8002a92 <_svfiprintf_r+0x1d2>
 80028f2:	2340      	movs	r3, #64	@ 0x40
 80028f4:	617b      	str	r3, [r7, #20]
 80028f6:	2300      	movs	r3, #0
 80028f8:	ac08      	add	r4, sp, #32
 80028fa:	6163      	str	r3, [r4, #20]
 80028fc:	3320      	adds	r3, #32
 80028fe:	7663      	strb	r3, [r4, #25]
 8002900:	3310      	adds	r3, #16
 8002902:	76a3      	strb	r3, [r4, #26]
 8002904:	9507      	str	r5, [sp, #28]
 8002906:	0035      	movs	r5, r6
 8002908:	782b      	ldrb	r3, [r5, #0]
 800290a:	2b00      	cmp	r3, #0
 800290c:	d001      	beq.n	8002912 <_svfiprintf_r+0x52>
 800290e:	2b25      	cmp	r3, #37	@ 0x25
 8002910:	d148      	bne.n	80029a4 <_svfiprintf_r+0xe4>
 8002912:	1bab      	subs	r3, r5, r6
 8002914:	9305      	str	r3, [sp, #20]
 8002916:	42b5      	cmp	r5, r6
 8002918:	d00b      	beq.n	8002932 <_svfiprintf_r+0x72>
 800291a:	0032      	movs	r2, r6
 800291c:	0039      	movs	r1, r7
 800291e:	9803      	ldr	r0, [sp, #12]
 8002920:	f7ff ff6e 	bl	8002800 <__ssputs_r>
 8002924:	3001      	adds	r0, #1
 8002926:	d100      	bne.n	800292a <_svfiprintf_r+0x6a>
 8002928:	e0ae      	b.n	8002a88 <_svfiprintf_r+0x1c8>
 800292a:	6963      	ldr	r3, [r4, #20]
 800292c:	9a05      	ldr	r2, [sp, #20]
 800292e:	189b      	adds	r3, r3, r2
 8002930:	6163      	str	r3, [r4, #20]
 8002932:	782b      	ldrb	r3, [r5, #0]
 8002934:	2b00      	cmp	r3, #0
 8002936:	d100      	bne.n	800293a <_svfiprintf_r+0x7a>
 8002938:	e0a6      	b.n	8002a88 <_svfiprintf_r+0x1c8>
 800293a:	2201      	movs	r2, #1
 800293c:	2300      	movs	r3, #0
 800293e:	4252      	negs	r2, r2
 8002940:	6062      	str	r2, [r4, #4]
 8002942:	a904      	add	r1, sp, #16
 8002944:	3254      	adds	r2, #84	@ 0x54
 8002946:	1852      	adds	r2, r2, r1
 8002948:	1c6e      	adds	r6, r5, #1
 800294a:	6023      	str	r3, [r4, #0]
 800294c:	60e3      	str	r3, [r4, #12]
 800294e:	60a3      	str	r3, [r4, #8]
 8002950:	7013      	strb	r3, [r2, #0]
 8002952:	65a3      	str	r3, [r4, #88]	@ 0x58
 8002954:	4b54      	ldr	r3, [pc, #336]	@ (8002aa8 <_svfiprintf_r+0x1e8>)
 8002956:	2205      	movs	r2, #5
 8002958:	0018      	movs	r0, r3
 800295a:	7831      	ldrb	r1, [r6, #0]
 800295c:	9305      	str	r3, [sp, #20]
 800295e:	f000 fde7 	bl	8003530 <memchr>
 8002962:	1c75      	adds	r5, r6, #1
 8002964:	2800      	cmp	r0, #0
 8002966:	d11f      	bne.n	80029a8 <_svfiprintf_r+0xe8>
 8002968:	6822      	ldr	r2, [r4, #0]
 800296a:	06d3      	lsls	r3, r2, #27
 800296c:	d504      	bpl.n	8002978 <_svfiprintf_r+0xb8>
 800296e:	2353      	movs	r3, #83	@ 0x53
 8002970:	a904      	add	r1, sp, #16
 8002972:	185b      	adds	r3, r3, r1
 8002974:	2120      	movs	r1, #32
 8002976:	7019      	strb	r1, [r3, #0]
 8002978:	0713      	lsls	r3, r2, #28
 800297a:	d504      	bpl.n	8002986 <_svfiprintf_r+0xc6>
 800297c:	2353      	movs	r3, #83	@ 0x53
 800297e:	a904      	add	r1, sp, #16
 8002980:	185b      	adds	r3, r3, r1
 8002982:	212b      	movs	r1, #43	@ 0x2b
 8002984:	7019      	strb	r1, [r3, #0]
 8002986:	7833      	ldrb	r3, [r6, #0]
 8002988:	2b2a      	cmp	r3, #42	@ 0x2a
 800298a:	d016      	beq.n	80029ba <_svfiprintf_r+0xfa>
 800298c:	0035      	movs	r5, r6
 800298e:	2100      	movs	r1, #0
 8002990:	200a      	movs	r0, #10
 8002992:	68e3      	ldr	r3, [r4, #12]
 8002994:	782a      	ldrb	r2, [r5, #0]
 8002996:	1c6e      	adds	r6, r5, #1
 8002998:	3a30      	subs	r2, #48	@ 0x30
 800299a:	2a09      	cmp	r2, #9
 800299c:	d950      	bls.n	8002a40 <_svfiprintf_r+0x180>
 800299e:	2900      	cmp	r1, #0
 80029a0:	d111      	bne.n	80029c6 <_svfiprintf_r+0x106>
 80029a2:	e017      	b.n	80029d4 <_svfiprintf_r+0x114>
 80029a4:	3501      	adds	r5, #1
 80029a6:	e7af      	b.n	8002908 <_svfiprintf_r+0x48>
 80029a8:	9b05      	ldr	r3, [sp, #20]
 80029aa:	6822      	ldr	r2, [r4, #0]
 80029ac:	1ac0      	subs	r0, r0, r3
 80029ae:	2301      	movs	r3, #1
 80029b0:	4083      	lsls	r3, r0
 80029b2:	4313      	orrs	r3, r2
 80029b4:	002e      	movs	r6, r5
 80029b6:	6023      	str	r3, [r4, #0]
 80029b8:	e7cc      	b.n	8002954 <_svfiprintf_r+0x94>
 80029ba:	9b07      	ldr	r3, [sp, #28]
 80029bc:	1d19      	adds	r1, r3, #4
 80029be:	681b      	ldr	r3, [r3, #0]
 80029c0:	9107      	str	r1, [sp, #28]
 80029c2:	2b00      	cmp	r3, #0
 80029c4:	db01      	blt.n	80029ca <_svfiprintf_r+0x10a>
 80029c6:	930b      	str	r3, [sp, #44]	@ 0x2c
 80029c8:	e004      	b.n	80029d4 <_svfiprintf_r+0x114>
 80029ca:	425b      	negs	r3, r3
 80029cc:	60e3      	str	r3, [r4, #12]
 80029ce:	2302      	movs	r3, #2
 80029d0:	4313      	orrs	r3, r2
 80029d2:	6023      	str	r3, [r4, #0]
 80029d4:	782b      	ldrb	r3, [r5, #0]
 80029d6:	2b2e      	cmp	r3, #46	@ 0x2e
 80029d8:	d10c      	bne.n	80029f4 <_svfiprintf_r+0x134>
 80029da:	786b      	ldrb	r3, [r5, #1]
 80029dc:	2b2a      	cmp	r3, #42	@ 0x2a
 80029de:	d134      	bne.n	8002a4a <_svfiprintf_r+0x18a>
 80029e0:	9b07      	ldr	r3, [sp, #28]
 80029e2:	3502      	adds	r5, #2
 80029e4:	1d1a      	adds	r2, r3, #4
 80029e6:	681b      	ldr	r3, [r3, #0]
 80029e8:	9207      	str	r2, [sp, #28]
 80029ea:	2b00      	cmp	r3, #0
 80029ec:	da01      	bge.n	80029f2 <_svfiprintf_r+0x132>
 80029ee:	2301      	movs	r3, #1
 80029f0:	425b      	negs	r3, r3
 80029f2:	9309      	str	r3, [sp, #36]	@ 0x24
 80029f4:	4e2d      	ldr	r6, [pc, #180]	@ (8002aac <_svfiprintf_r+0x1ec>)
 80029f6:	2203      	movs	r2, #3
 80029f8:	0030      	movs	r0, r6
 80029fa:	7829      	ldrb	r1, [r5, #0]
 80029fc:	f000 fd98 	bl	8003530 <memchr>
 8002a00:	2800      	cmp	r0, #0
 8002a02:	d006      	beq.n	8002a12 <_svfiprintf_r+0x152>
 8002a04:	2340      	movs	r3, #64	@ 0x40
 8002a06:	1b80      	subs	r0, r0, r6
 8002a08:	4083      	lsls	r3, r0
 8002a0a:	6822      	ldr	r2, [r4, #0]
 8002a0c:	3501      	adds	r5, #1
 8002a0e:	4313      	orrs	r3, r2
 8002a10:	6023      	str	r3, [r4, #0]
 8002a12:	7829      	ldrb	r1, [r5, #0]
 8002a14:	2206      	movs	r2, #6
 8002a16:	4826      	ldr	r0, [pc, #152]	@ (8002ab0 <_svfiprintf_r+0x1f0>)
 8002a18:	1c6e      	adds	r6, r5, #1
 8002a1a:	7621      	strb	r1, [r4, #24]
 8002a1c:	f000 fd88 	bl	8003530 <memchr>
 8002a20:	2800      	cmp	r0, #0
 8002a22:	d038      	beq.n	8002a96 <_svfiprintf_r+0x1d6>
 8002a24:	4b23      	ldr	r3, [pc, #140]	@ (8002ab4 <_svfiprintf_r+0x1f4>)
 8002a26:	2b00      	cmp	r3, #0
 8002a28:	d122      	bne.n	8002a70 <_svfiprintf_r+0x1b0>
 8002a2a:	2207      	movs	r2, #7
 8002a2c:	9b07      	ldr	r3, [sp, #28]
 8002a2e:	3307      	adds	r3, #7
 8002a30:	4393      	bics	r3, r2
 8002a32:	3308      	adds	r3, #8
 8002a34:	9307      	str	r3, [sp, #28]
 8002a36:	6963      	ldr	r3, [r4, #20]
 8002a38:	9a04      	ldr	r2, [sp, #16]
 8002a3a:	189b      	adds	r3, r3, r2
 8002a3c:	6163      	str	r3, [r4, #20]
 8002a3e:	e762      	b.n	8002906 <_svfiprintf_r+0x46>
 8002a40:	4343      	muls	r3, r0
 8002a42:	0035      	movs	r5, r6
 8002a44:	2101      	movs	r1, #1
 8002a46:	189b      	adds	r3, r3, r2
 8002a48:	e7a4      	b.n	8002994 <_svfiprintf_r+0xd4>
 8002a4a:	2300      	movs	r3, #0
 8002a4c:	200a      	movs	r0, #10
 8002a4e:	0019      	movs	r1, r3
 8002a50:	3501      	adds	r5, #1
 8002a52:	6063      	str	r3, [r4, #4]
 8002a54:	782a      	ldrb	r2, [r5, #0]
 8002a56:	1c6e      	adds	r6, r5, #1
 8002a58:	3a30      	subs	r2, #48	@ 0x30
 8002a5a:	2a09      	cmp	r2, #9
 8002a5c:	d903      	bls.n	8002a66 <_svfiprintf_r+0x1a6>
 8002a5e:	2b00      	cmp	r3, #0
 8002a60:	d0c8      	beq.n	80029f4 <_svfiprintf_r+0x134>
 8002a62:	9109      	str	r1, [sp, #36]	@ 0x24
 8002a64:	e7c6      	b.n	80029f4 <_svfiprintf_r+0x134>
 8002a66:	4341      	muls	r1, r0
 8002a68:	0035      	movs	r5, r6
 8002a6a:	2301      	movs	r3, #1
 8002a6c:	1889      	adds	r1, r1, r2
 8002a6e:	e7f1      	b.n	8002a54 <_svfiprintf_r+0x194>
 8002a70:	aa07      	add	r2, sp, #28
 8002a72:	9200      	str	r2, [sp, #0]
 8002a74:	0021      	movs	r1, r4
 8002a76:	003a      	movs	r2, r7
 8002a78:	4b0f      	ldr	r3, [pc, #60]	@ (8002ab8 <_svfiprintf_r+0x1f8>)
 8002a7a:	9803      	ldr	r0, [sp, #12]
 8002a7c:	e000      	b.n	8002a80 <_svfiprintf_r+0x1c0>
 8002a7e:	bf00      	nop
 8002a80:	9004      	str	r0, [sp, #16]
 8002a82:	9b04      	ldr	r3, [sp, #16]
 8002a84:	3301      	adds	r3, #1
 8002a86:	d1d6      	bne.n	8002a36 <_svfiprintf_r+0x176>
 8002a88:	89bb      	ldrh	r3, [r7, #12]
 8002a8a:	980d      	ldr	r0, [sp, #52]	@ 0x34
 8002a8c:	065b      	lsls	r3, r3, #25
 8002a8e:	d500      	bpl.n	8002a92 <_svfiprintf_r+0x1d2>
 8002a90:	e72c      	b.n	80028ec <_svfiprintf_r+0x2c>
 8002a92:	b021      	add	sp, #132	@ 0x84
 8002a94:	bdf0      	pop	{r4, r5, r6, r7, pc}
 8002a96:	aa07      	add	r2, sp, #28
 8002a98:	9200      	str	r2, [sp, #0]
 8002a9a:	0021      	movs	r1, r4
 8002a9c:	003a      	movs	r2, r7
 8002a9e:	4b06      	ldr	r3, [pc, #24]	@ (8002ab8 <_svfiprintf_r+0x1f8>)
 8002aa0:	9803      	ldr	r0, [sp, #12]
 8002aa2:	f000 fa39 	bl	8002f18 <_printf_i>
 8002aa6:	e7eb      	b.n	8002a80 <_svfiprintf_r+0x1c0>
 8002aa8:	08003880 	.word	0x08003880
 8002aac:	08003886 	.word	0x08003886
 8002ab0:	0800388a 	.word	0x0800388a
 8002ab4:	00000000 	.word	0x00000000
 8002ab8:	08002801 	.word	0x08002801

08002abc <_sungetc_r>:
 8002abc:	b570      	push	{r4, r5, r6, lr}
 8002abe:	0014      	movs	r4, r2
 8002ac0:	1c4b      	adds	r3, r1, #1
 8002ac2:	d103      	bne.n	8002acc <_sungetc_r+0x10>
 8002ac4:	2501      	movs	r5, #1
 8002ac6:	426d      	negs	r5, r5
 8002ac8:	0028      	movs	r0, r5
 8002aca:	bd70      	pop	{r4, r5, r6, pc}
 8002acc:	8993      	ldrh	r3, [r2, #12]
 8002ace:	2220      	movs	r2, #32
 8002ad0:	4393      	bics	r3, r2
 8002ad2:	6b62      	ldr	r2, [r4, #52]	@ 0x34
 8002ad4:	81a3      	strh	r3, [r4, #12]
 8002ad6:	b2ce      	uxtb	r6, r1
 8002ad8:	6863      	ldr	r3, [r4, #4]
 8002ada:	b2cd      	uxtb	r5, r1
 8002adc:	2a00      	cmp	r2, #0
 8002ade:	d010      	beq.n	8002b02 <_sungetc_r+0x46>
 8002ae0:	6ba2      	ldr	r2, [r4, #56]	@ 0x38
 8002ae2:	429a      	cmp	r2, r3
 8002ae4:	dd07      	ble.n	8002af6 <_sungetc_r+0x3a>
 8002ae6:	6823      	ldr	r3, [r4, #0]
 8002ae8:	3b01      	subs	r3, #1
 8002aea:	6023      	str	r3, [r4, #0]
 8002aec:	701e      	strb	r6, [r3, #0]
 8002aee:	6863      	ldr	r3, [r4, #4]
 8002af0:	3301      	adds	r3, #1
 8002af2:	6063      	str	r3, [r4, #4]
 8002af4:	e7e8      	b.n	8002ac8 <_sungetc_r+0xc>
 8002af6:	0021      	movs	r1, r4
 8002af8:	f000 fcb6 	bl	8003468 <__submore>
 8002afc:	2800      	cmp	r0, #0
 8002afe:	d0f2      	beq.n	8002ae6 <_sungetc_r+0x2a>
 8002b00:	e7e0      	b.n	8002ac4 <_sungetc_r+0x8>
 8002b02:	6921      	ldr	r1, [r4, #16]
 8002b04:	6822      	ldr	r2, [r4, #0]
 8002b06:	2900      	cmp	r1, #0
 8002b08:	d007      	beq.n	8002b1a <_sungetc_r+0x5e>
 8002b0a:	4291      	cmp	r1, r2
 8002b0c:	d205      	bcs.n	8002b1a <_sungetc_r+0x5e>
 8002b0e:	1e51      	subs	r1, r2, #1
 8002b10:	7808      	ldrb	r0, [r1, #0]
 8002b12:	42a8      	cmp	r0, r5
 8002b14:	d101      	bne.n	8002b1a <_sungetc_r+0x5e>
 8002b16:	6021      	str	r1, [r4, #0]
 8002b18:	e7ea      	b.n	8002af0 <_sungetc_r+0x34>
 8002b1a:	6423      	str	r3, [r4, #64]	@ 0x40
 8002b1c:	0023      	movs	r3, r4
 8002b1e:	3344      	adds	r3, #68	@ 0x44
 8002b20:	6363      	str	r3, [r4, #52]	@ 0x34
 8002b22:	2303      	movs	r3, #3
 8002b24:	63a3      	str	r3, [r4, #56]	@ 0x38
 8002b26:	0023      	movs	r3, r4
 8002b28:	3346      	adds	r3, #70	@ 0x46
 8002b2a:	63e2      	str	r2, [r4, #60]	@ 0x3c
 8002b2c:	701e      	strb	r6, [r3, #0]
 8002b2e:	6023      	str	r3, [r4, #0]
 8002b30:	2301      	movs	r3, #1
 8002b32:	e7de      	b.n	8002af2 <_sungetc_r+0x36>

08002b34 <__ssrefill_r>:
 8002b34:	b510      	push	{r4, lr}
 8002b36:	000c      	movs	r4, r1
 8002b38:	6b49      	ldr	r1, [r1, #52]	@ 0x34
 8002b3a:	2900      	cmp	r1, #0
 8002b3c:	d00e      	beq.n	8002b5c <__ssrefill_r+0x28>
 8002b3e:	0023      	movs	r3, r4
 8002b40:	3344      	adds	r3, #68	@ 0x44
 8002b42:	4299      	cmp	r1, r3
 8002b44:	d001      	beq.n	8002b4a <__ssrefill_r+0x16>
 8002b46:	f7ff fd5f 	bl	8002608 <_free_r>
 8002b4a:	2000      	movs	r0, #0
 8002b4c:	6c23      	ldr	r3, [r4, #64]	@ 0x40
 8002b4e:	6360      	str	r0, [r4, #52]	@ 0x34
 8002b50:	6063      	str	r3, [r4, #4]
 8002b52:	4283      	cmp	r3, r0
 8002b54:	d002      	beq.n	8002b5c <__ssrefill_r+0x28>
 8002b56:	6be3      	ldr	r3, [r4, #60]	@ 0x3c
 8002b58:	6023      	str	r3, [r4, #0]
 8002b5a:	bd10      	pop	{r4, pc}
 8002b5c:	6923      	ldr	r3, [r4, #16]
 8002b5e:	2001      	movs	r0, #1
 8002b60:	6023      	str	r3, [r4, #0]
 8002b62:	2300      	movs	r3, #0
 8002b64:	89a2      	ldrh	r2, [r4, #12]
 8002b66:	6063      	str	r3, [r4, #4]
 8002b68:	3320      	adds	r3, #32
 8002b6a:	4313      	orrs	r3, r2
 8002b6c:	81a3      	strh	r3, [r4, #12]
 8002b6e:	4240      	negs	r0, r0
 8002b70:	e7f3      	b.n	8002b5a <__ssrefill_r+0x26>
	...

08002b74 <__ssvfiscanf_r>:
 8002b74:	b5f0      	push	{r4, r5, r6, r7, lr}
 8002b76:	4caa      	ldr	r4, [pc, #680]	@ (8002e20 <__ssvfiscanf_r+0x2ac>)
 8002b78:	44a5      	add	sp, r4
 8002b7a:	000c      	movs	r4, r1
 8002b7c:	2100      	movs	r1, #0
 8002b7e:	9001      	str	r0, [sp, #4]
 8002b80:	20be      	movs	r0, #190	@ 0xbe
 8002b82:	9146      	str	r1, [sp, #280]	@ 0x118
 8002b84:	9147      	str	r1, [sp, #284]	@ 0x11c
 8002b86:	a903      	add	r1, sp, #12
 8002b88:	9148      	str	r1, [sp, #288]	@ 0x120
 8002b8a:	49a6      	ldr	r1, [pc, #664]	@ (8002e24 <__ssvfiscanf_r+0x2b0>)
 8002b8c:	0040      	lsls	r0, r0, #1
 8002b8e:	ad43      	add	r5, sp, #268	@ 0x10c
 8002b90:	5029      	str	r1, [r5, r0]
 8002b92:	49a5      	ldr	r1, [pc, #660]	@ (8002e28 <__ssvfiscanf_r+0x2b4>)
 8002b94:	3004      	adds	r0, #4
 8002b96:	ad43      	add	r5, sp, #268	@ 0x10c
 8002b98:	5029      	str	r1, [r5, r0]
 8002b9a:	9302      	str	r3, [sp, #8]
 8002b9c:	7813      	ldrb	r3, [r2, #0]
 8002b9e:	2b00      	cmp	r3, #0
 8002ba0:	d100      	bne.n	8002ba4 <__ssvfiscanf_r+0x30>
 8002ba2:	e13a      	b.n	8002e1a <__ssvfiscanf_r+0x2a6>
 8002ba4:	2108      	movs	r1, #8
 8002ba6:	2708      	movs	r7, #8
 8002ba8:	4ea0      	ldr	r6, [pc, #640]	@ (8002e2c <__ssvfiscanf_r+0x2b8>)
 8002baa:	1c55      	adds	r5, r2, #1
 8002bac:	5cf0      	ldrb	r0, [r6, r3]
 8002bae:	4001      	ands	r1, r0
 8002bb0:	4238      	tst	r0, r7
 8002bb2:	d01c      	beq.n	8002bee <__ssvfiscanf_r+0x7a>
 8002bb4:	6863      	ldr	r3, [r4, #4]
 8002bb6:	2b00      	cmp	r3, #0
 8002bb8:	dd0f      	ble.n	8002bda <__ssvfiscanf_r+0x66>
 8002bba:	6823      	ldr	r3, [r4, #0]
 8002bbc:	781a      	ldrb	r2, [r3, #0]
 8002bbe:	5cb2      	ldrb	r2, [r6, r2]
 8002bc0:	423a      	tst	r2, r7
 8002bc2:	d101      	bne.n	8002bc8 <__ssvfiscanf_r+0x54>
 8002bc4:	002a      	movs	r2, r5
 8002bc6:	e7e9      	b.n	8002b9c <__ssvfiscanf_r+0x28>
 8002bc8:	9a47      	ldr	r2, [sp, #284]	@ 0x11c
 8002bca:	3301      	adds	r3, #1
 8002bcc:	3201      	adds	r2, #1
 8002bce:	9247      	str	r2, [sp, #284]	@ 0x11c
 8002bd0:	6862      	ldr	r2, [r4, #4]
 8002bd2:	6023      	str	r3, [r4, #0]
 8002bd4:	3a01      	subs	r2, #1
 8002bd6:	6062      	str	r2, [r4, #4]
 8002bd8:	e7ec      	b.n	8002bb4 <__ssvfiscanf_r+0x40>
 8002bda:	22c0      	movs	r2, #192	@ 0xc0
 8002bdc:	ab43      	add	r3, sp, #268	@ 0x10c
 8002bde:	0052      	lsls	r2, r2, #1
 8002be0:	0021      	movs	r1, r4
 8002be2:	589b      	ldr	r3, [r3, r2]
 8002be4:	9801      	ldr	r0, [sp, #4]
 8002be6:	4798      	blx	r3
 8002be8:	2800      	cmp	r0, #0
 8002bea:	d0e6      	beq.n	8002bba <__ssvfiscanf_r+0x46>
 8002bec:	e7ea      	b.n	8002bc4 <__ssvfiscanf_r+0x50>
 8002bee:	001e      	movs	r6, r3
 8002bf0:	2b25      	cmp	r3, #37	@ 0x25
 8002bf2:	d160      	bne.n	8002cb6 <__ssvfiscanf_r+0x142>
 8002bf4:	9145      	str	r1, [sp, #276]	@ 0x114
 8002bf6:	9143      	str	r1, [sp, #268]	@ 0x10c
 8002bf8:	7853      	ldrb	r3, [r2, #1]
 8002bfa:	2b2a      	cmp	r3, #42	@ 0x2a
 8002bfc:	d102      	bne.n	8002c04 <__ssvfiscanf_r+0x90>
 8002bfe:	3b1a      	subs	r3, #26
 8002c00:	9343      	str	r3, [sp, #268]	@ 0x10c
 8002c02:	1c95      	adds	r5, r2, #2
 8002c04:	002e      	movs	r6, r5
 8002c06:	220a      	movs	r2, #10
 8002c08:	7831      	ldrb	r1, [r6, #0]
 8002c0a:	1c75      	adds	r5, r6, #1
 8002c0c:	000b      	movs	r3, r1
 8002c0e:	3b30      	subs	r3, #48	@ 0x30
 8002c10:	2b09      	cmp	r3, #9
 8002c12:	d91d      	bls.n	8002c50 <__ssvfiscanf_r+0xdc>
 8002c14:	4f86      	ldr	r7, [pc, #536]	@ (8002e30 <__ssvfiscanf_r+0x2bc>)
 8002c16:	2203      	movs	r2, #3
 8002c18:	0038      	movs	r0, r7
 8002c1a:	f000 fc89 	bl	8003530 <memchr>
 8002c1e:	2800      	cmp	r0, #0
 8002c20:	d006      	beq.n	8002c30 <__ssvfiscanf_r+0xbc>
 8002c22:	2301      	movs	r3, #1
 8002c24:	1bc0      	subs	r0, r0, r7
 8002c26:	4083      	lsls	r3, r0
 8002c28:	002e      	movs	r6, r5
 8002c2a:	9a43      	ldr	r2, [sp, #268]	@ 0x10c
 8002c2c:	4313      	orrs	r3, r2
 8002c2e:	9343      	str	r3, [sp, #268]	@ 0x10c
 8002c30:	1c75      	adds	r5, r6, #1
 8002c32:	7836      	ldrb	r6, [r6, #0]
 8002c34:	2e78      	cmp	r6, #120	@ 0x78
 8002c36:	d806      	bhi.n	8002c46 <__ssvfiscanf_r+0xd2>
 8002c38:	2e57      	cmp	r6, #87	@ 0x57
 8002c3a:	d810      	bhi.n	8002c5e <__ssvfiscanf_r+0xea>
 8002c3c:	2e25      	cmp	r6, #37	@ 0x25
 8002c3e:	d03a      	beq.n	8002cb6 <__ssvfiscanf_r+0x142>
 8002c40:	d834      	bhi.n	8002cac <__ssvfiscanf_r+0x138>
 8002c42:	2e00      	cmp	r6, #0
 8002c44:	d055      	beq.n	8002cf2 <__ssvfiscanf_r+0x17e>
 8002c46:	2303      	movs	r3, #3
 8002c48:	9349      	str	r3, [sp, #292]	@ 0x124
 8002c4a:	3307      	adds	r3, #7
 8002c4c:	9344      	str	r3, [sp, #272]	@ 0x110
 8002c4e:	e069      	b.n	8002d24 <__ssvfiscanf_r+0x1b0>
 8002c50:	9b45      	ldr	r3, [sp, #276]	@ 0x114
 8002c52:	002e      	movs	r6, r5
 8002c54:	4353      	muls	r3, r2
 8002c56:	3b30      	subs	r3, #48	@ 0x30
 8002c58:	185b      	adds	r3, r3, r1
 8002c5a:	9345      	str	r3, [sp, #276]	@ 0x114
 8002c5c:	e7d4      	b.n	8002c08 <__ssvfiscanf_r+0x94>
 8002c5e:	0030      	movs	r0, r6
 8002c60:	3858      	subs	r0, #88	@ 0x58
 8002c62:	2820      	cmp	r0, #32
 8002c64:	d8ef      	bhi.n	8002c46 <__ssvfiscanf_r+0xd2>
 8002c66:	f7fd fa57 	bl	8000118 <__gnu_thumb1_case_shi>
 8002c6a:	004b      	.short	0x004b
 8002c6c:	ffeeffee 	.word	0xffeeffee
 8002c70:	ffee007d 	.word	0xffee007d
 8002c74:	ffeeffee 	.word	0xffeeffee
 8002c78:	ffeeffee 	.word	0xffeeffee
 8002c7c:	ffeeffee 	.word	0xffeeffee
 8002c80:	007b0088 	.word	0x007b0088
 8002c84:	00240024 	.word	0x00240024
 8002c88:	ffee0024 	.word	0xffee0024
 8002c8c:	ffee0055 	.word	0xffee0055
 8002c90:	ffeeffee 	.word	0xffeeffee
 8002c94:	0090ffee 	.word	0x0090ffee
 8002c98:	00470059 	.word	0x00470059
 8002c9c:	ffeeffee 	.word	0xffeeffee
 8002ca0:	ffee008e 	.word	0xffee008e
 8002ca4:	ffee007b 	.word	0xffee007b
 8002ca8:	004bffee 	.word	0x004bffee
 8002cac:	3e45      	subs	r6, #69	@ 0x45
 8002cae:	2e02      	cmp	r6, #2
 8002cb0:	d8c9      	bhi.n	8002c46 <__ssvfiscanf_r+0xd2>
 8002cb2:	2305      	movs	r3, #5
 8002cb4:	e035      	b.n	8002d22 <__ssvfiscanf_r+0x1ae>
 8002cb6:	6863      	ldr	r3, [r4, #4]
 8002cb8:	2b00      	cmp	r3, #0
 8002cba:	dd0d      	ble.n	8002cd8 <__ssvfiscanf_r+0x164>
 8002cbc:	6823      	ldr	r3, [r4, #0]
 8002cbe:	781a      	ldrb	r2, [r3, #0]
 8002cc0:	42b2      	cmp	r2, r6
 8002cc2:	d000      	beq.n	8002cc6 <__ssvfiscanf_r+0x152>
 8002cc4:	e0a9      	b.n	8002e1a <__ssvfiscanf_r+0x2a6>
 8002cc6:	3301      	adds	r3, #1
 8002cc8:	6862      	ldr	r2, [r4, #4]
 8002cca:	6023      	str	r3, [r4, #0]
 8002ccc:	9b47      	ldr	r3, [sp, #284]	@ 0x11c
 8002cce:	3a01      	subs	r2, #1
 8002cd0:	3301      	adds	r3, #1
 8002cd2:	6062      	str	r2, [r4, #4]
 8002cd4:	9347      	str	r3, [sp, #284]	@ 0x11c
 8002cd6:	e775      	b.n	8002bc4 <__ssvfiscanf_r+0x50>
 8002cd8:	23c0      	movs	r3, #192	@ 0xc0
 8002cda:	aa43      	add	r2, sp, #268	@ 0x10c
 8002cdc:	005b      	lsls	r3, r3, #1
 8002cde:	0021      	movs	r1, r4
 8002ce0:	58d3      	ldr	r3, [r2, r3]
 8002ce2:	9801      	ldr	r0, [sp, #4]
 8002ce4:	4798      	blx	r3
 8002ce6:	2800      	cmp	r0, #0
 8002ce8:	d0e8      	beq.n	8002cbc <__ssvfiscanf_r+0x148>
 8002cea:	9846      	ldr	r0, [sp, #280]	@ 0x118
 8002cec:	2800      	cmp	r0, #0
 8002cee:	d000      	beq.n	8002cf2 <__ssvfiscanf_r+0x17e>
 8002cf0:	e08b      	b.n	8002e0a <__ssvfiscanf_r+0x296>
 8002cf2:	2001      	movs	r0, #1
 8002cf4:	4240      	negs	r0, r0
 8002cf6:	e08c      	b.n	8002e12 <__ssvfiscanf_r+0x29e>
 8002cf8:	2320      	movs	r3, #32
 8002cfa:	9a43      	ldr	r2, [sp, #268]	@ 0x10c
 8002cfc:	4313      	orrs	r3, r2
 8002cfe:	9343      	str	r3, [sp, #268]	@ 0x10c
 8002d00:	2380      	movs	r3, #128	@ 0x80
 8002d02:	9a43      	ldr	r2, [sp, #268]	@ 0x10c
 8002d04:	009b      	lsls	r3, r3, #2
 8002d06:	4313      	orrs	r3, r2
 8002d08:	9343      	str	r3, [sp, #268]	@ 0x10c
 8002d0a:	2310      	movs	r3, #16
 8002d0c:	9344      	str	r3, [sp, #272]	@ 0x110
 8002d0e:	2e6e      	cmp	r6, #110	@ 0x6e
 8002d10:	d902      	bls.n	8002d18 <__ssvfiscanf_r+0x1a4>
 8002d12:	e005      	b.n	8002d20 <__ssvfiscanf_r+0x1ac>
 8002d14:	2300      	movs	r3, #0
 8002d16:	9344      	str	r3, [sp, #272]	@ 0x110
 8002d18:	2303      	movs	r3, #3
 8002d1a:	e002      	b.n	8002d22 <__ssvfiscanf_r+0x1ae>
 8002d1c:	2308      	movs	r3, #8
 8002d1e:	9344      	str	r3, [sp, #272]	@ 0x110
 8002d20:	2304      	movs	r3, #4
 8002d22:	9349      	str	r3, [sp, #292]	@ 0x124
 8002d24:	6863      	ldr	r3, [r4, #4]
 8002d26:	2b00      	cmp	r3, #0
 8002d28:	dd3e      	ble.n	8002da8 <__ssvfiscanf_r+0x234>
 8002d2a:	9b43      	ldr	r3, [sp, #268]	@ 0x10c
 8002d2c:	065b      	lsls	r3, r3, #25
 8002d2e:	d408      	bmi.n	8002d42 <__ssvfiscanf_r+0x1ce>
 8002d30:	27c0      	movs	r7, #192	@ 0xc0
 8002d32:	2608      	movs	r6, #8
 8002d34:	007f      	lsls	r7, r7, #1
 8002d36:	6823      	ldr	r3, [r4, #0]
 8002d38:	493c      	ldr	r1, [pc, #240]	@ (8002e2c <__ssvfiscanf_r+0x2b8>)
 8002d3a:	781a      	ldrb	r2, [r3, #0]
 8002d3c:	5c8a      	ldrb	r2, [r1, r2]
 8002d3e:	4232      	tst	r2, r6
 8002d40:	d13c      	bne.n	8002dbc <__ssvfiscanf_r+0x248>
 8002d42:	9b49      	ldr	r3, [sp, #292]	@ 0x124
 8002d44:	2b02      	cmp	r3, #2
 8002d46:	dc4c      	bgt.n	8002de2 <__ssvfiscanf_r+0x26e>
 8002d48:	0022      	movs	r2, r4
 8002d4a:	9801      	ldr	r0, [sp, #4]
 8002d4c:	ab02      	add	r3, sp, #8
 8002d4e:	a943      	add	r1, sp, #268	@ 0x10c
 8002d50:	f000 f9f0 	bl	8003134 <_scanf_chars>
 8002d54:	2801      	cmp	r0, #1
 8002d56:	d060      	beq.n	8002e1a <__ssvfiscanf_r+0x2a6>
 8002d58:	2802      	cmp	r0, #2
 8002d5a:	d000      	beq.n	8002d5e <__ssvfiscanf_r+0x1ea>
 8002d5c:	e732      	b.n	8002bc4 <__ssvfiscanf_r+0x50>
 8002d5e:	e7c4      	b.n	8002cea <__ssvfiscanf_r+0x176>
 8002d60:	230a      	movs	r3, #10
 8002d62:	e7d3      	b.n	8002d0c <__ssvfiscanf_r+0x198>
 8002d64:	0029      	movs	r1, r5
 8002d66:	a803      	add	r0, sp, #12
 8002d68:	f000 fb44 	bl	80033f4 <__sccl>
 8002d6c:	2340      	movs	r3, #64	@ 0x40
 8002d6e:	9a43      	ldr	r2, [sp, #268]	@ 0x10c
 8002d70:	0005      	movs	r5, r0
 8002d72:	4313      	orrs	r3, r2
 8002d74:	9343      	str	r3, [sp, #268]	@ 0x10c
 8002d76:	2301      	movs	r3, #1
 8002d78:	e7d3      	b.n	8002d22 <__ssvfiscanf_r+0x1ae>
 8002d7a:	2340      	movs	r3, #64	@ 0x40
 8002d7c:	9a43      	ldr	r2, [sp, #268]	@ 0x10c
 8002d7e:	4313      	orrs	r3, r2
 8002d80:	9343      	str	r3, [sp, #268]	@ 0x10c
 8002d82:	2300      	movs	r3, #0
 8002d84:	e7cd      	b.n	8002d22 <__ssvfiscanf_r+0x1ae>
 8002d86:	2302      	movs	r3, #2
 8002d88:	e7cb      	b.n	8002d22 <__ssvfiscanf_r+0x1ae>
 8002d8a:	9a43      	ldr	r2, [sp, #268]	@ 0x10c
 8002d8c:	06d3      	lsls	r3, r2, #27
 8002d8e:	d500      	bpl.n	8002d92 <__ssvfiscanf_r+0x21e>
 8002d90:	e718      	b.n	8002bc4 <__ssvfiscanf_r+0x50>
 8002d92:	9b02      	ldr	r3, [sp, #8]
 8002d94:	9947      	ldr	r1, [sp, #284]	@ 0x11c
 8002d96:	1d18      	adds	r0, r3, #4
 8002d98:	9002      	str	r0, [sp, #8]
 8002d9a:	681b      	ldr	r3, [r3, #0]
 8002d9c:	07d6      	lsls	r6, r2, #31
 8002d9e:	d501      	bpl.n	8002da4 <__ssvfiscanf_r+0x230>
 8002da0:	8019      	strh	r1, [r3, #0]
 8002da2:	e70f      	b.n	8002bc4 <__ssvfiscanf_r+0x50>
 8002da4:	6019      	str	r1, [r3, #0]
 8002da6:	e70d      	b.n	8002bc4 <__ssvfiscanf_r+0x50>
 8002da8:	23c0      	movs	r3, #192	@ 0xc0
 8002daa:	aa43      	add	r2, sp, #268	@ 0x10c
 8002dac:	005b      	lsls	r3, r3, #1
 8002dae:	0021      	movs	r1, r4
 8002db0:	58d3      	ldr	r3, [r2, r3]
 8002db2:	9801      	ldr	r0, [sp, #4]
 8002db4:	4798      	blx	r3
 8002db6:	2800      	cmp	r0, #0
 8002db8:	d0b7      	beq.n	8002d2a <__ssvfiscanf_r+0x1b6>
 8002dba:	e796      	b.n	8002cea <__ssvfiscanf_r+0x176>
 8002dbc:	9a47      	ldr	r2, [sp, #284]	@ 0x11c
 8002dbe:	3201      	adds	r2, #1
 8002dc0:	9247      	str	r2, [sp, #284]	@ 0x11c
 8002dc2:	6862      	ldr	r2, [r4, #4]
 8002dc4:	3a01      	subs	r2, #1
 8002dc6:	6062      	str	r2, [r4, #4]
 8002dc8:	2a00      	cmp	r2, #0
 8002dca:	dd02      	ble.n	8002dd2 <__ssvfiscanf_r+0x25e>
 8002dcc:	3301      	adds	r3, #1
 8002dce:	6023      	str	r3, [r4, #0]
 8002dd0:	e7b1      	b.n	8002d36 <__ssvfiscanf_r+0x1c2>
 8002dd2:	ab43      	add	r3, sp, #268	@ 0x10c
 8002dd4:	0021      	movs	r1, r4
 8002dd6:	59db      	ldr	r3, [r3, r7]
 8002dd8:	9801      	ldr	r0, [sp, #4]
 8002dda:	4798      	blx	r3
 8002ddc:	2800      	cmp	r0, #0
 8002dde:	d0aa      	beq.n	8002d36 <__ssvfiscanf_r+0x1c2>
 8002de0:	e783      	b.n	8002cea <__ssvfiscanf_r+0x176>
 8002de2:	2b04      	cmp	r3, #4
 8002de4:	dc06      	bgt.n	8002df4 <__ssvfiscanf_r+0x280>
 8002de6:	0022      	movs	r2, r4
 8002de8:	9801      	ldr	r0, [sp, #4]
 8002dea:	ab02      	add	r3, sp, #8
 8002dec:	a943      	add	r1, sp, #268	@ 0x10c
 8002dee:	f000 fa01 	bl	80031f4 <_scanf_i>
 8002df2:	e7af      	b.n	8002d54 <__ssvfiscanf_r+0x1e0>
 8002df4:	4b0f      	ldr	r3, [pc, #60]	@ (8002e34 <__ssvfiscanf_r+0x2c0>)
 8002df6:	2b00      	cmp	r3, #0
 8002df8:	d100      	bne.n	8002dfc <__ssvfiscanf_r+0x288>
 8002dfa:	e6e3      	b.n	8002bc4 <__ssvfiscanf_r+0x50>
 8002dfc:	0022      	movs	r2, r4
 8002dfe:	9801      	ldr	r0, [sp, #4]
 8002e00:	ab02      	add	r3, sp, #8
 8002e02:	a943      	add	r1, sp, #268	@ 0x10c
 8002e04:	e000      	b.n	8002e08 <__ssvfiscanf_r+0x294>
 8002e06:	bf00      	nop
 8002e08:	e7a4      	b.n	8002d54 <__ssvfiscanf_r+0x1e0>
 8002e0a:	89a3      	ldrh	r3, [r4, #12]
 8002e0c:	065b      	lsls	r3, r3, #25
 8002e0e:	d500      	bpl.n	8002e12 <__ssvfiscanf_r+0x29e>
 8002e10:	e76f      	b.n	8002cf2 <__ssvfiscanf_r+0x17e>
 8002e12:	23a5      	movs	r3, #165	@ 0xa5
 8002e14:	009b      	lsls	r3, r3, #2
 8002e16:	449d      	add	sp, r3
 8002e18:	bdf0      	pop	{r4, r5, r6, r7, pc}
 8002e1a:	9846      	ldr	r0, [sp, #280]	@ 0x118
 8002e1c:	e7f9      	b.n	8002e12 <__ssvfiscanf_r+0x29e>
 8002e1e:	46c0      	nop			@ (mov r8, r8)
 8002e20:	fffffd6c 	.word	0xfffffd6c
 8002e24:	08002abd 	.word	0x08002abd
 8002e28:	08002b35 	.word	0x08002b35
 8002e2c:	080038cf 	.word	0x080038cf
 8002e30:	08003886 	.word	0x08003886
 8002e34:	00000000 	.word	0x00000000

08002e38 <_printf_common>:
 8002e38:	b5f7      	push	{r0, r1, r2, r4, r5, r6, r7, lr}
 8002e3a:	0016      	movs	r6, r2
 8002e3c:	9301      	str	r3, [sp, #4]
 8002e3e:	688a      	ldr	r2, [r1, #8]
 8002e40:	690b      	ldr	r3, [r1, #16]
 8002e42:	000c      	movs	r4, r1
 8002e44:	9000      	str	r0, [sp, #0]
 8002e46:	4293      	cmp	r3, r2
 8002e48:	da00      	bge.n	8002e4c <_printf_common+0x14>
 8002e4a:	0013      	movs	r3, r2
 8002e4c:	0022      	movs	r2, r4
 8002e4e:	6033      	str	r3, [r6, #0]
 8002e50:	3243      	adds	r2, #67	@ 0x43
 8002e52:	7812      	ldrb	r2, [r2, #0]
 8002e54:	2a00      	cmp	r2, #0
 8002e56:	d001      	beq.n	8002e5c <_printf_common+0x24>
 8002e58:	3301      	adds	r3, #1
 8002e5a:	6033      	str	r3, [r6, #0]
 8002e5c:	6823      	ldr	r3, [r4, #0]
 8002e5e:	069b      	lsls	r3, r3, #26
 8002e60:	d502      	bpl.n	8002e68 <_printf_common+0x30>
 8002e62:	6833      	ldr	r3, [r6, #0]
 8002e64:	3302      	adds	r3, #2
 8002e66:	6033      	str	r3, [r6, #0]
 8002e68:	6822      	ldr	r2, [r4, #0]
 8002e6a:	2306      	movs	r3, #6
 8002e6c:	0015      	movs	r5, r2
 8002e6e:	401d      	ands	r5, r3
 8002e70:	421a      	tst	r2, r3
 8002e72:	d027      	beq.n	8002ec4 <_printf_common+0x8c>
 8002e74:	0023      	movs	r3, r4
 8002e76:	3343      	adds	r3, #67	@ 0x43
 8002e78:	781b      	ldrb	r3, [r3, #0]
 8002e7a:	1e5a      	subs	r2, r3, #1
 8002e7c:	4193      	sbcs	r3, r2
 8002e7e:	6822      	ldr	r2, [r4, #0]
 8002e80:	0692      	lsls	r2, r2, #26
 8002e82:	d430      	bmi.n	8002ee6 <_printf_common+0xae>
 8002e84:	0022      	movs	r2, r4
 8002e86:	9901      	ldr	r1, [sp, #4]
 8002e88:	9800      	ldr	r0, [sp, #0]
 8002e8a:	9d08      	ldr	r5, [sp, #32]
 8002e8c:	3243      	adds	r2, #67	@ 0x43
 8002e8e:	47a8      	blx	r5
 8002e90:	3001      	adds	r0, #1
 8002e92:	d025      	beq.n	8002ee0 <_printf_common+0xa8>
 8002e94:	2206      	movs	r2, #6
 8002e96:	6823      	ldr	r3, [r4, #0]
 8002e98:	2500      	movs	r5, #0
 8002e9a:	4013      	ands	r3, r2
 8002e9c:	2b04      	cmp	r3, #4
 8002e9e:	d105      	bne.n	8002eac <_printf_common+0x74>
 8002ea0:	6833      	ldr	r3, [r6, #0]
 8002ea2:	68e5      	ldr	r5, [r4, #12]
 8002ea4:	1aed      	subs	r5, r5, r3
 8002ea6:	43eb      	mvns	r3, r5
 8002ea8:	17db      	asrs	r3, r3, #31
 8002eaa:	401d      	ands	r5, r3
 8002eac:	68a3      	ldr	r3, [r4, #8]
 8002eae:	6922      	ldr	r2, [r4, #16]
 8002eb0:	4293      	cmp	r3, r2
 8002eb2:	dd01      	ble.n	8002eb8 <_printf_common+0x80>
 8002eb4:	1a9b      	subs	r3, r3, r2
 8002eb6:	18ed      	adds	r5, r5, r3
 8002eb8:	2600      	movs	r6, #0
 8002eba:	42b5      	cmp	r5, r6
 8002ebc:	d120      	bne.n	8002f00 <_printf_common+0xc8>
 8002ebe:	2000      	movs	r0, #0
 8002ec0:	e010      	b.n	8002ee4 <_printf_common+0xac>
 8002ec2:	3501      	adds	r5, #1
 8002ec4:	68e3      	ldr	r3, [r4, #12]
 8002ec6:	6832      	ldr	r2, [r6, #0]
 8002ec8:	1a9b      	subs	r3, r3, r2
 8002eca:	42ab      	cmp	r3, r5
 8002ecc:	ddd2      	ble.n	8002e74 <_printf_common+0x3c>
 8002ece:	0022      	movs	r2, r4
 8002ed0:	2301      	movs	r3, #1
 8002ed2:	9901      	ldr	r1, [sp, #4]
 8002ed4:	9800      	ldr	r0, [sp, #0]
 8002ed6:	9f08      	ldr	r7, [sp, #32]
 8002ed8:	3219      	adds	r2, #25
 8002eda:	47b8      	blx	r7
 8002edc:	3001      	adds	r0, #1
 8002ede:	d1f0      	bne.n	8002ec2 <_printf_common+0x8a>
 8002ee0:	2001      	movs	r0, #1
 8002ee2:	4240      	negs	r0, r0
 8002ee4:	bdfe      	pop	{r1, r2, r3, r4, r5, r6, r7, pc}
 8002ee6:	2030      	movs	r0, #48	@ 0x30
 8002ee8:	18e1      	adds	r1, r4, r3
 8002eea:	3143      	adds	r1, #67	@ 0x43
 8002eec:	7008      	strb	r0, [r1, #0]
 8002eee:	0021      	movs	r1, r4
 8002ef0:	1c5a      	adds	r2, r3, #1
 8002ef2:	3145      	adds	r1, #69	@ 0x45
 8002ef4:	7809      	ldrb	r1, [r1, #0]
 8002ef6:	18a2      	adds	r2, r4, r2
 8002ef8:	3243      	adds	r2, #67	@ 0x43
 8002efa:	3302      	adds	r3, #2
 8002efc:	7011      	strb	r1, [r2, #0]
 8002efe:	e7c1      	b.n	8002e84 <_printf_common+0x4c>
 8002f00:	0022      	movs	r2, r4
 8002f02:	2301      	movs	r3, #1
 8002f04:	9901      	ldr	r1, [sp, #4]
 8002f06:	9800      	ldr	r0, [sp, #0]
 8002f08:	9f08      	ldr	r7, [sp, #32]
 8002f0a:	321a      	adds	r2, #26
 8002f0c:	47b8      	blx	r7
 8002f0e:	3001      	adds	r0, #1
 8002f10:	d0e6      	beq.n	8002ee0 <_printf_common+0xa8>
 8002f12:	3601      	adds	r6, #1
 8002f14:	e7d1      	b.n	8002eba <_printf_common+0x82>
	...

08002f18 <_printf_i>:
 8002f18:	b5f0      	push	{r4, r5, r6, r7, lr}
 8002f1a:	b08b      	sub	sp, #44	@ 0x2c
 8002f1c:	9206      	str	r2, [sp, #24]
 8002f1e:	000a      	movs	r2, r1
 8002f20:	3243      	adds	r2, #67	@ 0x43
 8002f22:	9307      	str	r3, [sp, #28]
 8002f24:	9005      	str	r0, [sp, #20]
 8002f26:	9203      	str	r2, [sp, #12]
 8002f28:	7e0a      	ldrb	r2, [r1, #24]
 8002f2a:	000c      	movs	r4, r1
 8002f2c:	9b10      	ldr	r3, [sp, #64]	@ 0x40
 8002f2e:	2a78      	cmp	r2, #120	@ 0x78
 8002f30:	d809      	bhi.n	8002f46 <_printf_i+0x2e>
 8002f32:	2a62      	cmp	r2, #98	@ 0x62
 8002f34:	d80b      	bhi.n	8002f4e <_printf_i+0x36>
 8002f36:	2a00      	cmp	r2, #0
 8002f38:	d100      	bne.n	8002f3c <_printf_i+0x24>
 8002f3a:	e0bc      	b.n	80030b6 <_printf_i+0x19e>
 8002f3c:	497b      	ldr	r1, [pc, #492]	@ (800312c <_printf_i+0x214>)
 8002f3e:	9104      	str	r1, [sp, #16]
 8002f40:	2a58      	cmp	r2, #88	@ 0x58
 8002f42:	d100      	bne.n	8002f46 <_printf_i+0x2e>
 8002f44:	e090      	b.n	8003068 <_printf_i+0x150>
 8002f46:	0025      	movs	r5, r4
 8002f48:	3542      	adds	r5, #66	@ 0x42
 8002f4a:	702a      	strb	r2, [r5, #0]
 8002f4c:	e022      	b.n	8002f94 <_printf_i+0x7c>
 8002f4e:	0010      	movs	r0, r2
 8002f50:	3863      	subs	r0, #99	@ 0x63
 8002f52:	2815      	cmp	r0, #21
 8002f54:	d8f7      	bhi.n	8002f46 <_printf_i+0x2e>
 8002f56:	f7fd f8df 	bl	8000118 <__gnu_thumb1_case_shi>
 8002f5a:	0016      	.short	0x0016
 8002f5c:	fff6001f 	.word	0xfff6001f
 8002f60:	fff6fff6 	.word	0xfff6fff6
 8002f64:	001ffff6 	.word	0x001ffff6
 8002f68:	fff6fff6 	.word	0xfff6fff6
 8002f6c:	fff6fff6 	.word	0xfff6fff6
 8002f70:	003600a1 	.word	0x003600a1
 8002f74:	fff60080 	.word	0xfff60080
 8002f78:	00b2fff6 	.word	0x00b2fff6
 8002f7c:	0036fff6 	.word	0x0036fff6
 8002f80:	fff6fff6 	.word	0xfff6fff6
 8002f84:	0084      	.short	0x0084
 8002f86:	0025      	movs	r5, r4
 8002f88:	681a      	ldr	r2, [r3, #0]
 8002f8a:	3542      	adds	r5, #66	@ 0x42
 8002f8c:	1d11      	adds	r1, r2, #4
 8002f8e:	6019      	str	r1, [r3, #0]
 8002f90:	6813      	ldr	r3, [r2, #0]
 8002f92:	702b      	strb	r3, [r5, #0]
 8002f94:	2301      	movs	r3, #1
 8002f96:	e0a0      	b.n	80030da <_printf_i+0x1c2>
 8002f98:	6818      	ldr	r0, [r3, #0]
 8002f9a:	6809      	ldr	r1, [r1, #0]
 8002f9c:	1d02      	adds	r2, r0, #4
 8002f9e:	060d      	lsls	r5, r1, #24
 8002fa0:	d50b      	bpl.n	8002fba <_printf_i+0xa2>
 8002fa2:	6806      	ldr	r6, [r0, #0]
 8002fa4:	601a      	str	r2, [r3, #0]
 8002fa6:	2e00      	cmp	r6, #0
 8002fa8:	da03      	bge.n	8002fb2 <_printf_i+0x9a>
 8002faa:	232d      	movs	r3, #45	@ 0x2d
 8002fac:	9a03      	ldr	r2, [sp, #12]
 8002fae:	4276      	negs	r6, r6
 8002fb0:	7013      	strb	r3, [r2, #0]
 8002fb2:	4b5e      	ldr	r3, [pc, #376]	@ (800312c <_printf_i+0x214>)
 8002fb4:	270a      	movs	r7, #10
 8002fb6:	9304      	str	r3, [sp, #16]
 8002fb8:	e018      	b.n	8002fec <_printf_i+0xd4>
 8002fba:	6806      	ldr	r6, [r0, #0]
 8002fbc:	601a      	str	r2, [r3, #0]
 8002fbe:	0649      	lsls	r1, r1, #25
 8002fc0:	d5f1      	bpl.n	8002fa6 <_printf_i+0x8e>
 8002fc2:	b236      	sxth	r6, r6
 8002fc4:	e7ef      	b.n	8002fa6 <_printf_i+0x8e>
 8002fc6:	6808      	ldr	r0, [r1, #0]
 8002fc8:	6819      	ldr	r1, [r3, #0]
 8002fca:	c940      	ldmia	r1!, {r6}
 8002fcc:	0605      	lsls	r5, r0, #24
 8002fce:	d402      	bmi.n	8002fd6 <_printf_i+0xbe>
 8002fd0:	0640      	lsls	r0, r0, #25
 8002fd2:	d500      	bpl.n	8002fd6 <_printf_i+0xbe>
 8002fd4:	b2b6      	uxth	r6, r6
 8002fd6:	6019      	str	r1, [r3, #0]
 8002fd8:	4b54      	ldr	r3, [pc, #336]	@ (800312c <_printf_i+0x214>)
 8002fda:	270a      	movs	r7, #10
 8002fdc:	9304      	str	r3, [sp, #16]
 8002fde:	2a6f      	cmp	r2, #111	@ 0x6f
 8002fe0:	d100      	bne.n	8002fe4 <_printf_i+0xcc>
 8002fe2:	3f02      	subs	r7, #2
 8002fe4:	0023      	movs	r3, r4
 8002fe6:	2200      	movs	r2, #0
 8002fe8:	3343      	adds	r3, #67	@ 0x43
 8002fea:	701a      	strb	r2, [r3, #0]
 8002fec:	6863      	ldr	r3, [r4, #4]
 8002fee:	60a3      	str	r3, [r4, #8]
 8002ff0:	2b00      	cmp	r3, #0
 8002ff2:	db03      	blt.n	8002ffc <_printf_i+0xe4>
 8002ff4:	2104      	movs	r1, #4
 8002ff6:	6822      	ldr	r2, [r4, #0]
 8002ff8:	438a      	bics	r2, r1
 8002ffa:	6022      	str	r2, [r4, #0]
 8002ffc:	2e00      	cmp	r6, #0
 8002ffe:	d102      	bne.n	8003006 <_printf_i+0xee>
 8003000:	9d03      	ldr	r5, [sp, #12]
 8003002:	2b00      	cmp	r3, #0
 8003004:	d00c      	beq.n	8003020 <_printf_i+0x108>
 8003006:	9d03      	ldr	r5, [sp, #12]
 8003008:	0030      	movs	r0, r6
 800300a:	0039      	movs	r1, r7
 800300c:	f7fd f914 	bl	8000238 <__aeabi_uidivmod>
 8003010:	9b04      	ldr	r3, [sp, #16]
 8003012:	3d01      	subs	r5, #1
 8003014:	5c5b      	ldrb	r3, [r3, r1]
 8003016:	702b      	strb	r3, [r5, #0]
 8003018:	0033      	movs	r3, r6
 800301a:	0006      	movs	r6, r0
 800301c:	429f      	cmp	r7, r3
 800301e:	d9f3      	bls.n	8003008 <_printf_i+0xf0>
 8003020:	2f08      	cmp	r7, #8
 8003022:	d109      	bne.n	8003038 <_printf_i+0x120>
 8003024:	6823      	ldr	r3, [r4, #0]
 8003026:	07db      	lsls	r3, r3, #31
 8003028:	d506      	bpl.n	8003038 <_printf_i+0x120>
 800302a:	6862      	ldr	r2, [r4, #4]
 800302c:	6923      	ldr	r3, [r4, #16]
 800302e:	429a      	cmp	r2, r3
 8003030:	dc02      	bgt.n	8003038 <_printf_i+0x120>
 8003032:	2330      	movs	r3, #48	@ 0x30
 8003034:	3d01      	subs	r5, #1
 8003036:	702b      	strb	r3, [r5, #0]
 8003038:	9b03      	ldr	r3, [sp, #12]
 800303a:	1b5b      	subs	r3, r3, r5
 800303c:	6123      	str	r3, [r4, #16]
 800303e:	9b07      	ldr	r3, [sp, #28]
 8003040:	0021      	movs	r1, r4
 8003042:	9300      	str	r3, [sp, #0]
 8003044:	9805      	ldr	r0, [sp, #20]
 8003046:	9b06      	ldr	r3, [sp, #24]
 8003048:	aa09      	add	r2, sp, #36	@ 0x24
 800304a:	f7ff fef5 	bl	8002e38 <_printf_common>
 800304e:	3001      	adds	r0, #1
 8003050:	d148      	bne.n	80030e4 <_printf_i+0x1cc>
 8003052:	2001      	movs	r0, #1
 8003054:	4240      	negs	r0, r0
 8003056:	b00b      	add	sp, #44	@ 0x2c
 8003058:	bdf0      	pop	{r4, r5, r6, r7, pc}
 800305a:	2220      	movs	r2, #32
 800305c:	6809      	ldr	r1, [r1, #0]
 800305e:	430a      	orrs	r2, r1
 8003060:	6022      	str	r2, [r4, #0]
 8003062:	2278      	movs	r2, #120	@ 0x78
 8003064:	4932      	ldr	r1, [pc, #200]	@ (8003130 <_printf_i+0x218>)
 8003066:	9104      	str	r1, [sp, #16]
 8003068:	0021      	movs	r1, r4
 800306a:	3145      	adds	r1, #69	@ 0x45
 800306c:	700a      	strb	r2, [r1, #0]
 800306e:	6819      	ldr	r1, [r3, #0]
 8003070:	6822      	ldr	r2, [r4, #0]
 8003072:	c940      	ldmia	r1!, {r6}
 8003074:	0610      	lsls	r0, r2, #24
 8003076:	d402      	bmi.n	800307e <_printf_i+0x166>
 8003078:	0650      	lsls	r0, r2, #25
 800307a:	d500      	bpl.n	800307e <_printf_i+0x166>
 800307c:	b2b6      	uxth	r6, r6
 800307e:	6019      	str	r1, [r3, #0]
 8003080:	07d3      	lsls	r3, r2, #31
 8003082:	d502      	bpl.n	800308a <_printf_i+0x172>
 8003084:	2320      	movs	r3, #32
 8003086:	4313      	orrs	r3, r2
 8003088:	6023      	str	r3, [r4, #0]
 800308a:	2e00      	cmp	r6, #0
 800308c:	d001      	beq.n	8003092 <_printf_i+0x17a>
 800308e:	2710      	movs	r7, #16
 8003090:	e7a8      	b.n	8002fe4 <_printf_i+0xcc>
 8003092:	2220      	movs	r2, #32
 8003094:	6823      	ldr	r3, [r4, #0]
 8003096:	4393      	bics	r3, r2
 8003098:	6023      	str	r3, [r4, #0]
 800309a:	e7f8      	b.n	800308e <_printf_i+0x176>
 800309c:	681a      	ldr	r2, [r3, #0]
 800309e:	680d      	ldr	r5, [r1, #0]
 80030a0:	1d10      	adds	r0, r2, #4
 80030a2:	6949      	ldr	r1, [r1, #20]
 80030a4:	6018      	str	r0, [r3, #0]
 80030a6:	6813      	ldr	r3, [r2, #0]
 80030a8:	062e      	lsls	r6, r5, #24
 80030aa:	d501      	bpl.n	80030b0 <_printf_i+0x198>
 80030ac:	6019      	str	r1, [r3, #0]
 80030ae:	e002      	b.n	80030b6 <_printf_i+0x19e>
 80030b0:	066d      	lsls	r5, r5, #25
 80030b2:	d5fb      	bpl.n	80030ac <_printf_i+0x194>
 80030b4:	8019      	strh	r1, [r3, #0]
 80030b6:	2300      	movs	r3, #0
 80030b8:	9d03      	ldr	r5, [sp, #12]
 80030ba:	6123      	str	r3, [r4, #16]
 80030bc:	e7bf      	b.n	800303e <_printf_i+0x126>
 80030be:	681a      	ldr	r2, [r3, #0]
 80030c0:	1d11      	adds	r1, r2, #4
 80030c2:	6019      	str	r1, [r3, #0]
 80030c4:	6815      	ldr	r5, [r2, #0]
 80030c6:	2100      	movs	r1, #0
 80030c8:	0028      	movs	r0, r5
 80030ca:	6862      	ldr	r2, [r4, #4]
 80030cc:	f000 fa30 	bl	8003530 <memchr>
 80030d0:	2800      	cmp	r0, #0
 80030d2:	d001      	beq.n	80030d8 <_printf_i+0x1c0>
 80030d4:	1b40      	subs	r0, r0, r5
 80030d6:	6060      	str	r0, [r4, #4]
 80030d8:	6863      	ldr	r3, [r4, #4]
 80030da:	6123      	str	r3, [r4, #16]
 80030dc:	2300      	movs	r3, #0
 80030de:	9a03      	ldr	r2, [sp, #12]
 80030e0:	7013      	strb	r3, [r2, #0]
 80030e2:	e7ac      	b.n	800303e <_printf_i+0x126>
 80030e4:	002a      	movs	r2, r5
 80030e6:	6923      	ldr	r3, [r4, #16]
 80030e8:	9906      	ldr	r1, [sp, #24]
 80030ea:	9805      	ldr	r0, [sp, #20]
 80030ec:	9d07      	ldr	r5, [sp, #28]
 80030ee:	47a8      	blx	r5
 80030f0:	3001      	adds	r0, #1
 80030f2:	d0ae      	beq.n	8003052 <_printf_i+0x13a>
 80030f4:	6823      	ldr	r3, [r4, #0]
 80030f6:	079b      	lsls	r3, r3, #30
 80030f8:	d415      	bmi.n	8003126 <_printf_i+0x20e>
 80030fa:	9b09      	ldr	r3, [sp, #36]	@ 0x24
 80030fc:	68e0      	ldr	r0, [r4, #12]
 80030fe:	4298      	cmp	r0, r3
 8003100:	daa9      	bge.n	8003056 <_printf_i+0x13e>
 8003102:	0018      	movs	r0, r3
 8003104:	e7a7      	b.n	8003056 <_printf_i+0x13e>
 8003106:	0022      	movs	r2, r4
 8003108:	2301      	movs	r3, #1
 800310a:	9906      	ldr	r1, [sp, #24]
 800310c:	9805      	ldr	r0, [sp, #20]
 800310e:	9e07      	ldr	r6, [sp, #28]
 8003110:	3219      	adds	r2, #25
 8003112:	47b0      	blx	r6
 8003114:	3001      	adds	r0, #1
 8003116:	d09c      	beq.n	8003052 <_printf_i+0x13a>
 8003118:	3501      	adds	r5, #1
 800311a:	68e3      	ldr	r3, [r4, #12]
 800311c:	9a09      	ldr	r2, [sp, #36]	@ 0x24
 800311e:	1a9b      	subs	r3, r3, r2
 8003120:	42ab      	cmp	r3, r5
 8003122:	dcf0      	bgt.n	8003106 <_printf_i+0x1ee>
 8003124:	e7e9      	b.n	80030fa <_printf_i+0x1e2>
 8003126:	2500      	movs	r5, #0
 8003128:	e7f7      	b.n	800311a <_printf_i+0x202>
 800312a:	46c0      	nop			@ (mov r8, r8)
 800312c:	08003891 	.word	0x08003891
 8003130:	080038a2 	.word	0x080038a2

08003134 <_scanf_chars>:
 8003134:	b5f7      	push	{r0, r1, r2, r4, r5, r6, r7, lr}
 8003136:	0015      	movs	r5, r2
 8003138:	688a      	ldr	r2, [r1, #8]
 800313a:	000c      	movs	r4, r1
 800313c:	9001      	str	r0, [sp, #4]
 800313e:	2a00      	cmp	r2, #0
 8003140:	d104      	bne.n	800314c <_scanf_chars+0x18>
 8003142:	698a      	ldr	r2, [r1, #24]
 8003144:	2a00      	cmp	r2, #0
 8003146:	d117      	bne.n	8003178 <_scanf_chars+0x44>
 8003148:	3201      	adds	r2, #1
 800314a:	60a2      	str	r2, [r4, #8]
 800314c:	6822      	ldr	r2, [r4, #0]
 800314e:	06d2      	lsls	r2, r2, #27
 8003150:	d403      	bmi.n	800315a <_scanf_chars+0x26>
 8003152:	681a      	ldr	r2, [r3, #0]
 8003154:	1d11      	adds	r1, r2, #4
 8003156:	6019      	str	r1, [r3, #0]
 8003158:	6817      	ldr	r7, [r2, #0]
 800315a:	2600      	movs	r6, #0
 800315c:	69a0      	ldr	r0, [r4, #24]
 800315e:	2800      	cmp	r0, #0
 8003160:	d016      	beq.n	8003190 <_scanf_chars+0x5c>
 8003162:	2801      	cmp	r0, #1
 8003164:	d10b      	bne.n	800317e <_scanf_chars+0x4a>
 8003166:	682b      	ldr	r3, [r5, #0]
 8003168:	6962      	ldr	r2, [r4, #20]
 800316a:	781b      	ldrb	r3, [r3, #0]
 800316c:	5cd3      	ldrb	r3, [r2, r3]
 800316e:	2b00      	cmp	r3, #0
 8003170:	d10e      	bne.n	8003190 <_scanf_chars+0x5c>
 8003172:	2e00      	cmp	r6, #0
 8003174:	d03b      	beq.n	80031ee <_scanf_chars+0xba>
 8003176:	e029      	b.n	80031cc <_scanf_chars+0x98>
 8003178:	2201      	movs	r2, #1
 800317a:	4252      	negs	r2, r2
 800317c:	e7e5      	b.n	800314a <_scanf_chars+0x16>
 800317e:	2802      	cmp	r0, #2
 8003180:	d124      	bne.n	80031cc <_scanf_chars+0x98>
 8003182:	682b      	ldr	r3, [r5, #0]
 8003184:	4a1a      	ldr	r2, [pc, #104]	@ (80031f0 <_scanf_chars+0xbc>)
 8003186:	781b      	ldrb	r3, [r3, #0]
 8003188:	5cd3      	ldrb	r3, [r2, r3]
 800318a:	2208      	movs	r2, #8
 800318c:	4213      	tst	r3, r2
 800318e:	d11d      	bne.n	80031cc <_scanf_chars+0x98>
 8003190:	2210      	movs	r2, #16
 8003192:	6823      	ldr	r3, [r4, #0]
 8003194:	3601      	adds	r6, #1
 8003196:	4213      	tst	r3, r2
 8003198:	d103      	bne.n	80031a2 <_scanf_chars+0x6e>
 800319a:	682b      	ldr	r3, [r5, #0]
 800319c:	781b      	ldrb	r3, [r3, #0]
 800319e:	703b      	strb	r3, [r7, #0]
 80031a0:	3701      	adds	r7, #1
 80031a2:	682a      	ldr	r2, [r5, #0]
 80031a4:	686b      	ldr	r3, [r5, #4]
 80031a6:	3201      	adds	r2, #1
 80031a8:	602a      	str	r2, [r5, #0]
 80031aa:	68a2      	ldr	r2, [r4, #8]
 80031ac:	3b01      	subs	r3, #1
 80031ae:	3a01      	subs	r2, #1
 80031b0:	606b      	str	r3, [r5, #4]
 80031b2:	60a2      	str	r2, [r4, #8]
 80031b4:	2a00      	cmp	r2, #0
 80031b6:	d009      	beq.n	80031cc <_scanf_chars+0x98>
 80031b8:	2b00      	cmp	r3, #0
 80031ba:	dccf      	bgt.n	800315c <_scanf_chars+0x28>
 80031bc:	23c0      	movs	r3, #192	@ 0xc0
 80031be:	005b      	lsls	r3, r3, #1
 80031c0:	0029      	movs	r1, r5
 80031c2:	58e3      	ldr	r3, [r4, r3]
 80031c4:	9801      	ldr	r0, [sp, #4]
 80031c6:	4798      	blx	r3
 80031c8:	2800      	cmp	r0, #0
 80031ca:	d0c7      	beq.n	800315c <_scanf_chars+0x28>
 80031cc:	6822      	ldr	r2, [r4, #0]
 80031ce:	2310      	movs	r3, #16
 80031d0:	0011      	movs	r1, r2
 80031d2:	4019      	ands	r1, r3
 80031d4:	421a      	tst	r2, r3
 80031d6:	d106      	bne.n	80031e6 <_scanf_chars+0xb2>
 80031d8:	68e3      	ldr	r3, [r4, #12]
 80031da:	3301      	adds	r3, #1
 80031dc:	60e3      	str	r3, [r4, #12]
 80031de:	69a3      	ldr	r3, [r4, #24]
 80031e0:	2b00      	cmp	r3, #0
 80031e2:	d000      	beq.n	80031e6 <_scanf_chars+0xb2>
 80031e4:	7039      	strb	r1, [r7, #0]
 80031e6:	2000      	movs	r0, #0
 80031e8:	6923      	ldr	r3, [r4, #16]
 80031ea:	199b      	adds	r3, r3, r6
 80031ec:	6123      	str	r3, [r4, #16]
 80031ee:	bdfe      	pop	{r1, r2, r3, r4, r5, r6, r7, pc}
 80031f0:	080038cf 	.word	0x080038cf

080031f4 <_scanf_i>:
 80031f4:	b5f0      	push	{r4, r5, r6, r7, lr}
 80031f6:	b08b      	sub	sp, #44	@ 0x2c
 80031f8:	9301      	str	r3, [sp, #4]
 80031fa:	4b78      	ldr	r3, [pc, #480]	@ (80033dc <_scanf_i+0x1e8>)
 80031fc:	0016      	movs	r6, r2
 80031fe:	9004      	str	r0, [sp, #16]
 8003200:	aa07      	add	r2, sp, #28
 8003202:	cba1      	ldmia	r3!, {r0, r5, r7}
 8003204:	c2a1      	stmia	r2!, {r0, r5, r7}
 8003206:	4a76      	ldr	r2, [pc, #472]	@ (80033e0 <_scanf_i+0x1ec>)
 8003208:	698b      	ldr	r3, [r1, #24]
 800320a:	000c      	movs	r4, r1
 800320c:	9205      	str	r2, [sp, #20]
 800320e:	2b03      	cmp	r3, #3
 8003210:	d101      	bne.n	8003216 <_scanf_i+0x22>
 8003212:	4b74      	ldr	r3, [pc, #464]	@ (80033e4 <_scanf_i+0x1f0>)
 8003214:	9305      	str	r3, [sp, #20]
 8003216:	22ae      	movs	r2, #174	@ 0xae
 8003218:	2000      	movs	r0, #0
 800321a:	68a3      	ldr	r3, [r4, #8]
 800321c:	0052      	lsls	r2, r2, #1
 800321e:	1e59      	subs	r1, r3, #1
 8003220:	9003      	str	r0, [sp, #12]
 8003222:	4291      	cmp	r1, r2
 8003224:	d905      	bls.n	8003232 <_scanf_i+0x3e>
 8003226:	3b5e      	subs	r3, #94	@ 0x5e
 8003228:	3bff      	subs	r3, #255	@ 0xff
 800322a:	9303      	str	r3, [sp, #12]
 800322c:	235e      	movs	r3, #94	@ 0x5e
 800322e:	33ff      	adds	r3, #255	@ 0xff
 8003230:	60a3      	str	r3, [r4, #8]
 8003232:	0023      	movs	r3, r4
 8003234:	331c      	adds	r3, #28
 8003236:	9300      	str	r3, [sp, #0]
 8003238:	23d0      	movs	r3, #208	@ 0xd0
 800323a:	2700      	movs	r7, #0
 800323c:	6822      	ldr	r2, [r4, #0]
 800323e:	011b      	lsls	r3, r3, #4
 8003240:	4313      	orrs	r3, r2
 8003242:	6023      	str	r3, [r4, #0]
 8003244:	9b00      	ldr	r3, [sp, #0]
 8003246:	9302      	str	r3, [sp, #8]
 8003248:	6833      	ldr	r3, [r6, #0]
 800324a:	a807      	add	r0, sp, #28
 800324c:	7819      	ldrb	r1, [r3, #0]
 800324e:	00bb      	lsls	r3, r7, #2
 8003250:	2202      	movs	r2, #2
 8003252:	5818      	ldr	r0, [r3, r0]
 8003254:	f000 f96c 	bl	8003530 <memchr>
 8003258:	2800      	cmp	r0, #0
 800325a:	d029      	beq.n	80032b0 <_scanf_i+0xbc>
 800325c:	2f01      	cmp	r7, #1
 800325e:	d15e      	bne.n	800331e <_scanf_i+0x12a>
 8003260:	6863      	ldr	r3, [r4, #4]
 8003262:	2b00      	cmp	r3, #0
 8003264:	d106      	bne.n	8003274 <_scanf_i+0x80>
 8003266:	3308      	adds	r3, #8
 8003268:	6822      	ldr	r2, [r4, #0]
 800326a:	6063      	str	r3, [r4, #4]
 800326c:	33f9      	adds	r3, #249	@ 0xf9
 800326e:	33ff      	adds	r3, #255	@ 0xff
 8003270:	4313      	orrs	r3, r2
 8003272:	6023      	str	r3, [r4, #0]
 8003274:	6823      	ldr	r3, [r4, #0]
 8003276:	4a5c      	ldr	r2, [pc, #368]	@ (80033e8 <_scanf_i+0x1f4>)
 8003278:	4013      	ands	r3, r2
 800327a:	6023      	str	r3, [r4, #0]
 800327c:	68a3      	ldr	r3, [r4, #8]
 800327e:	1e5a      	subs	r2, r3, #1
 8003280:	60a2      	str	r2, [r4, #8]
 8003282:	2b00      	cmp	r3, #0
 8003284:	d014      	beq.n	80032b0 <_scanf_i+0xbc>
 8003286:	6833      	ldr	r3, [r6, #0]
 8003288:	1c5a      	adds	r2, r3, #1
 800328a:	6032      	str	r2, [r6, #0]
 800328c:	781b      	ldrb	r3, [r3, #0]
 800328e:	9a02      	ldr	r2, [sp, #8]
 8003290:	7013      	strb	r3, [r2, #0]
 8003292:	6873      	ldr	r3, [r6, #4]
 8003294:	1c55      	adds	r5, r2, #1
 8003296:	3b01      	subs	r3, #1
 8003298:	6073      	str	r3, [r6, #4]
 800329a:	2b00      	cmp	r3, #0
 800329c:	dc07      	bgt.n	80032ae <_scanf_i+0xba>
 800329e:	23c0      	movs	r3, #192	@ 0xc0
 80032a0:	005b      	lsls	r3, r3, #1
 80032a2:	0031      	movs	r1, r6
 80032a4:	58e3      	ldr	r3, [r4, r3]
 80032a6:	9804      	ldr	r0, [sp, #16]
 80032a8:	4798      	blx	r3
 80032aa:	2800      	cmp	r0, #0
 80032ac:	d17e      	bne.n	80033ac <_scanf_i+0x1b8>
 80032ae:	9502      	str	r5, [sp, #8]
 80032b0:	3701      	adds	r7, #1
 80032b2:	2f03      	cmp	r7, #3
 80032b4:	d1c8      	bne.n	8003248 <_scanf_i+0x54>
 80032b6:	6863      	ldr	r3, [r4, #4]
 80032b8:	2b00      	cmp	r3, #0
 80032ba:	d101      	bne.n	80032c0 <_scanf_i+0xcc>
 80032bc:	330a      	adds	r3, #10
 80032be:	6063      	str	r3, [r4, #4]
 80032c0:	2700      	movs	r7, #0
 80032c2:	6863      	ldr	r3, [r4, #4]
 80032c4:	4949      	ldr	r1, [pc, #292]	@ (80033ec <_scanf_i+0x1f8>)
 80032c6:	6960      	ldr	r0, [r4, #20]
 80032c8:	1ac9      	subs	r1, r1, r3
 80032ca:	f000 f893 	bl	80033f4 <__sccl>
 80032ce:	9d02      	ldr	r5, [sp, #8]
 80032d0:	68a3      	ldr	r3, [r4, #8]
 80032d2:	6820      	ldr	r0, [r4, #0]
 80032d4:	9302      	str	r3, [sp, #8]
 80032d6:	2b00      	cmp	r3, #0
 80032d8:	d03f      	beq.n	800335a <_scanf_i+0x166>
 80032da:	6831      	ldr	r1, [r6, #0]
 80032dc:	6963      	ldr	r3, [r4, #20]
 80032de:	780a      	ldrb	r2, [r1, #0]
 80032e0:	5c9b      	ldrb	r3, [r3, r2]
 80032e2:	2b00      	cmp	r3, #0
 80032e4:	d039      	beq.n	800335a <_scanf_i+0x166>
 80032e6:	2a30      	cmp	r2, #48	@ 0x30
 80032e8:	d128      	bne.n	800333c <_scanf_i+0x148>
 80032ea:	2380      	movs	r3, #128	@ 0x80
 80032ec:	011b      	lsls	r3, r3, #4
 80032ee:	4218      	tst	r0, r3
 80032f0:	d024      	beq.n	800333c <_scanf_i+0x148>
 80032f2:	9b03      	ldr	r3, [sp, #12]
 80032f4:	3701      	adds	r7, #1
 80032f6:	2b00      	cmp	r3, #0
 80032f8:	d005      	beq.n	8003306 <_scanf_i+0x112>
 80032fa:	001a      	movs	r2, r3
 80032fc:	9b02      	ldr	r3, [sp, #8]
 80032fe:	3a01      	subs	r2, #1
 8003300:	3301      	adds	r3, #1
 8003302:	9203      	str	r2, [sp, #12]
 8003304:	60a3      	str	r3, [r4, #8]
 8003306:	6873      	ldr	r3, [r6, #4]
 8003308:	3b01      	subs	r3, #1
 800330a:	6073      	str	r3, [r6, #4]
 800330c:	2b00      	cmp	r3, #0
 800330e:	dd1c      	ble.n	800334a <_scanf_i+0x156>
 8003310:	6833      	ldr	r3, [r6, #0]
 8003312:	3301      	adds	r3, #1
 8003314:	6033      	str	r3, [r6, #0]
 8003316:	68a3      	ldr	r3, [r4, #8]
 8003318:	3b01      	subs	r3, #1
 800331a:	60a3      	str	r3, [r4, #8]
 800331c:	e7d8      	b.n	80032d0 <_scanf_i+0xdc>
 800331e:	2f02      	cmp	r7, #2
 8003320:	d1ac      	bne.n	800327c <_scanf_i+0x88>
 8003322:	23c0      	movs	r3, #192	@ 0xc0
 8003324:	2180      	movs	r1, #128	@ 0x80
 8003326:	6822      	ldr	r2, [r4, #0]
 8003328:	00db      	lsls	r3, r3, #3
 800332a:	4013      	ands	r3, r2
 800332c:	0089      	lsls	r1, r1, #2
 800332e:	428b      	cmp	r3, r1
 8003330:	d1c1      	bne.n	80032b6 <_scanf_i+0xc2>
 8003332:	2310      	movs	r3, #16
 8003334:	6063      	str	r3, [r4, #4]
 8003336:	33f0      	adds	r3, #240	@ 0xf0
 8003338:	4313      	orrs	r3, r2
 800333a:	e79e      	b.n	800327a <_scanf_i+0x86>
 800333c:	4b2c      	ldr	r3, [pc, #176]	@ (80033f0 <_scanf_i+0x1fc>)
 800333e:	4003      	ands	r3, r0
 8003340:	6023      	str	r3, [r4, #0]
 8003342:	780b      	ldrb	r3, [r1, #0]
 8003344:	702b      	strb	r3, [r5, #0]
 8003346:	3501      	adds	r5, #1
 8003348:	e7dd      	b.n	8003306 <_scanf_i+0x112>
 800334a:	23c0      	movs	r3, #192	@ 0xc0
 800334c:	005b      	lsls	r3, r3, #1
 800334e:	0031      	movs	r1, r6
 8003350:	58e3      	ldr	r3, [r4, r3]
 8003352:	9804      	ldr	r0, [sp, #16]
 8003354:	4798      	blx	r3
 8003356:	2800      	cmp	r0, #0
 8003358:	d0dd      	beq.n	8003316 <_scanf_i+0x122>
 800335a:	6823      	ldr	r3, [r4, #0]
 800335c:	05db      	lsls	r3, r3, #23
 800335e:	d50e      	bpl.n	800337e <_scanf_i+0x18a>
 8003360:	9b00      	ldr	r3, [sp, #0]
 8003362:	429d      	cmp	r5, r3
 8003364:	d907      	bls.n	8003376 <_scanf_i+0x182>
 8003366:	23be      	movs	r3, #190	@ 0xbe
 8003368:	3d01      	subs	r5, #1
 800336a:	005b      	lsls	r3, r3, #1
 800336c:	0032      	movs	r2, r6
 800336e:	7829      	ldrb	r1, [r5, #0]
 8003370:	58e3      	ldr	r3, [r4, r3]
 8003372:	9804      	ldr	r0, [sp, #16]
 8003374:	4798      	blx	r3
 8003376:	9b00      	ldr	r3, [sp, #0]
 8003378:	2001      	movs	r0, #1
 800337a:	429d      	cmp	r5, r3
 800337c:	d029      	beq.n	80033d2 <_scanf_i+0x1de>
 800337e:	6821      	ldr	r1, [r4, #0]
 8003380:	2310      	movs	r3, #16
 8003382:	000a      	movs	r2, r1
 8003384:	401a      	ands	r2, r3
 8003386:	4219      	tst	r1, r3
 8003388:	d11c      	bne.n	80033c4 <_scanf_i+0x1d0>
 800338a:	702a      	strb	r2, [r5, #0]
 800338c:	6863      	ldr	r3, [r4, #4]
 800338e:	9900      	ldr	r1, [sp, #0]
 8003390:	9804      	ldr	r0, [sp, #16]
 8003392:	9e05      	ldr	r6, [sp, #20]
 8003394:	47b0      	blx	r6
 8003396:	9b01      	ldr	r3, [sp, #4]
 8003398:	6822      	ldr	r2, [r4, #0]
 800339a:	681b      	ldr	r3, [r3, #0]
 800339c:	0691      	lsls	r1, r2, #26
 800339e:	d507      	bpl.n	80033b0 <_scanf_i+0x1bc>
 80033a0:	9901      	ldr	r1, [sp, #4]
 80033a2:	1d1a      	adds	r2, r3, #4
 80033a4:	600a      	str	r2, [r1, #0]
 80033a6:	681b      	ldr	r3, [r3, #0]
 80033a8:	6018      	str	r0, [r3, #0]
 80033aa:	e008      	b.n	80033be <_scanf_i+0x1ca>
 80033ac:	2700      	movs	r7, #0
 80033ae:	e7d4      	b.n	800335a <_scanf_i+0x166>
 80033b0:	1d19      	adds	r1, r3, #4
 80033b2:	07d6      	lsls	r6, r2, #31
 80033b4:	d50f      	bpl.n	80033d6 <_scanf_i+0x1e2>
 80033b6:	9a01      	ldr	r2, [sp, #4]
 80033b8:	6011      	str	r1, [r2, #0]
 80033ba:	681b      	ldr	r3, [r3, #0]
 80033bc:	8018      	strh	r0, [r3, #0]
 80033be:	68e3      	ldr	r3, [r4, #12]
 80033c0:	3301      	adds	r3, #1
 80033c2:	60e3      	str	r3, [r4, #12]
 80033c4:	2000      	movs	r0, #0
 80033c6:	9b00      	ldr	r3, [sp, #0]
 80033c8:	1aed      	subs	r5, r5, r3
 80033ca:	6923      	ldr	r3, [r4, #16]
 80033cc:	19ed      	adds	r5, r5, r7
 80033ce:	195b      	adds	r3, r3, r5
 80033d0:	6123      	str	r3, [r4, #16]
 80033d2:	b00b      	add	sp, #44	@ 0x2c
 80033d4:	bdf0      	pop	{r4, r5, r6, r7, pc}
 80033d6:	9a01      	ldr	r2, [sp, #4]
 80033d8:	6011      	str	r1, [r2, #0]
 80033da:	e7e4      	b.n	80033a6 <_scanf_i+0x1b2>
 80033dc:	08003834 	.word	0x08003834
 80033e0:	080037d9 	.word	0x080037d9
 80033e4:	080036cd 	.word	0x080036cd
 80033e8:	fffffaff 	.word	0xfffffaff
 80033ec:	080038c3 	.word	0x080038c3
 80033f0:	fffff6ff 	.word	0xfffff6ff

080033f4 <__sccl>:
 80033f4:	b570      	push	{r4, r5, r6, lr}
 80033f6:	780b      	ldrb	r3, [r1, #0]
 80033f8:	0004      	movs	r4, r0
 80033fa:	2b5e      	cmp	r3, #94	@ 0x5e
 80033fc:	d018      	beq.n	8003430 <__sccl+0x3c>
 80033fe:	2200      	movs	r2, #0
 8003400:	1c4d      	adds	r5, r1, #1
 8003402:	0021      	movs	r1, r4
 8003404:	1c60      	adds	r0, r4, #1
 8003406:	30ff      	adds	r0, #255	@ 0xff
 8003408:	700a      	strb	r2, [r1, #0]
 800340a:	3101      	adds	r1, #1
 800340c:	4281      	cmp	r1, r0
 800340e:	d1fb      	bne.n	8003408 <__sccl+0x14>
 8003410:	1e68      	subs	r0, r5, #1
 8003412:	2b00      	cmp	r3, #0
 8003414:	d00b      	beq.n	800342e <__sccl+0x3a>
 8003416:	2101      	movs	r1, #1
 8003418:	404a      	eors	r2, r1
 800341a:	0028      	movs	r0, r5
 800341c:	54e2      	strb	r2, [r4, r3]
 800341e:	7801      	ldrb	r1, [r0, #0]
 8003420:	1c45      	adds	r5, r0, #1
 8003422:	292d      	cmp	r1, #45	@ 0x2d
 8003424:	d00a      	beq.n	800343c <__sccl+0x48>
 8003426:	295d      	cmp	r1, #93	@ 0x5d
 8003428:	d01b      	beq.n	8003462 <__sccl+0x6e>
 800342a:	2900      	cmp	r1, #0
 800342c:	d104      	bne.n	8003438 <__sccl+0x44>
 800342e:	bd70      	pop	{r4, r5, r6, pc}
 8003430:	2201      	movs	r2, #1
 8003432:	784b      	ldrb	r3, [r1, #1]
 8003434:	1c8d      	adds	r5, r1, #2
 8003436:	e7e4      	b.n	8003402 <__sccl+0xe>
 8003438:	000b      	movs	r3, r1
 800343a:	e7ee      	b.n	800341a <__sccl+0x26>
 800343c:	7846      	ldrb	r6, [r0, #1]
 800343e:	2e5d      	cmp	r6, #93	@ 0x5d
 8003440:	d0fa      	beq.n	8003438 <__sccl+0x44>
 8003442:	42b3      	cmp	r3, r6
 8003444:	dcf8      	bgt.n	8003438 <__sccl+0x44>
 8003446:	0019      	movs	r1, r3
 8003448:	3002      	adds	r0, #2
 800344a:	3101      	adds	r1, #1
 800344c:	5462      	strb	r2, [r4, r1]
 800344e:	428e      	cmp	r6, r1
 8003450:	dcfb      	bgt.n	800344a <__sccl+0x56>
 8003452:	2100      	movs	r1, #0
 8003454:	1c5d      	adds	r5, r3, #1
 8003456:	42b3      	cmp	r3, r6
 8003458:	da01      	bge.n	800345e <__sccl+0x6a>
 800345a:	1af1      	subs	r1, r6, r3
 800345c:	3901      	subs	r1, #1
 800345e:	186b      	adds	r3, r5, r1
 8003460:	e7dd      	b.n	800341e <__sccl+0x2a>
 8003462:	0028      	movs	r0, r5
 8003464:	e7e3      	b.n	800342e <__sccl+0x3a>
	...

08003468 <__submore>:
 8003468:	000b      	movs	r3, r1
 800346a:	b5f7      	push	{r0, r1, r2, r4, r5, r6, r7, lr}
 800346c:	6b4d      	ldr	r5, [r1, #52]	@ 0x34
 800346e:	3344      	adds	r3, #68	@ 0x44
 8003470:	000c      	movs	r4, r1
 8003472:	429d      	cmp	r5, r3
 8003474:	d11c      	bne.n	80034b0 <__submore+0x48>
 8003476:	2680      	movs	r6, #128	@ 0x80
 8003478:	00f6      	lsls	r6, r6, #3
 800347a:	0031      	movs	r1, r6
 800347c:	f7ff f930 	bl	80026e0 <_malloc_r>
 8003480:	2800      	cmp	r0, #0
 8003482:	d102      	bne.n	800348a <__submore+0x22>
 8003484:	2001      	movs	r0, #1
 8003486:	4240      	negs	r0, r0
 8003488:	bdfe      	pop	{r1, r2, r3, r4, r5, r6, r7, pc}
 800348a:	0023      	movs	r3, r4
 800348c:	6360      	str	r0, [r4, #52]	@ 0x34
 800348e:	63a6      	str	r6, [r4, #56]	@ 0x38
 8003490:	3346      	adds	r3, #70	@ 0x46
 8003492:	781a      	ldrb	r2, [r3, #0]
 8003494:	4b10      	ldr	r3, [pc, #64]	@ (80034d8 <__submore+0x70>)
 8003496:	54c2      	strb	r2, [r0, r3]
 8003498:	0023      	movs	r3, r4
 800349a:	3345      	adds	r3, #69	@ 0x45
 800349c:	781a      	ldrb	r2, [r3, #0]
 800349e:	4b0f      	ldr	r3, [pc, #60]	@ (80034dc <__submore+0x74>)
 80034a0:	54c2      	strb	r2, [r0, r3]
 80034a2:	782a      	ldrb	r2, [r5, #0]
 80034a4:	4b0e      	ldr	r3, [pc, #56]	@ (80034e0 <__submore+0x78>)
 80034a6:	54c2      	strb	r2, [r0, r3]
 80034a8:	18c0      	adds	r0, r0, r3
 80034aa:	6020      	str	r0, [r4, #0]
 80034ac:	2000      	movs	r0, #0
 80034ae:	e7eb      	b.n	8003488 <__submore+0x20>
 80034b0:	6b8e      	ldr	r6, [r1, #56]	@ 0x38
 80034b2:	0029      	movs	r1, r5
 80034b4:	0073      	lsls	r3, r6, #1
 80034b6:	001a      	movs	r2, r3
 80034b8:	9301      	str	r3, [sp, #4]
 80034ba:	f000 f84d 	bl	8003558 <_realloc_r>
 80034be:	1e05      	subs	r5, r0, #0
 80034c0:	d0e0      	beq.n	8003484 <__submore+0x1c>
 80034c2:	1987      	adds	r7, r0, r6
 80034c4:	0001      	movs	r1, r0
 80034c6:	0032      	movs	r2, r6
 80034c8:	0038      	movs	r0, r7
 80034ca:	f000 f83c 	bl	8003546 <memcpy>
 80034ce:	9b01      	ldr	r3, [sp, #4]
 80034d0:	6027      	str	r7, [r4, #0]
 80034d2:	6365      	str	r5, [r4, #52]	@ 0x34
 80034d4:	63a3      	str	r3, [r4, #56]	@ 0x38
 80034d6:	e7e9      	b.n	80034ac <__submore+0x44>
 80034d8:	000003ff 	.word	0x000003ff
 80034dc:	000003fe 	.word	0x000003fe
 80034e0:	000003fd 	.word	0x000003fd

080034e4 <memmove>:
 80034e4:	b510      	push	{r4, lr}
 80034e6:	4288      	cmp	r0, r1
 80034e8:	d806      	bhi.n	80034f8 <memmove+0x14>
 80034ea:	2300      	movs	r3, #0
 80034ec:	429a      	cmp	r2, r3
 80034ee:	d008      	beq.n	8003502 <memmove+0x1e>
 80034f0:	5ccc      	ldrb	r4, [r1, r3]
 80034f2:	54c4      	strb	r4, [r0, r3]
 80034f4:	3301      	adds	r3, #1
 80034f6:	e7f9      	b.n	80034ec <memmove+0x8>
 80034f8:	188b      	adds	r3, r1, r2
 80034fa:	4298      	cmp	r0, r3
 80034fc:	d2f5      	bcs.n	80034ea <memmove+0x6>
 80034fe:	3a01      	subs	r2, #1
 8003500:	d200      	bcs.n	8003504 <memmove+0x20>
 8003502:	bd10      	pop	{r4, pc}
 8003504:	5c8b      	ldrb	r3, [r1, r2]
 8003506:	5483      	strb	r3, [r0, r2]
 8003508:	e7f9      	b.n	80034fe <memmove+0x1a>
	...

0800350c <_sbrk_r>:
 800350c:	2300      	movs	r3, #0
 800350e:	b570      	push	{r4, r5, r6, lr}
 8003510:	4d06      	ldr	r5, [pc, #24]	@ (800352c <_sbrk_r+0x20>)
 8003512:	0004      	movs	r4, r0
 8003514:	0008      	movs	r0, r1
 8003516:	602b      	str	r3, [r5, #0]
 8003518:	f7fe ffa0 	bl	800245c <_sbrk>
 800351c:	1c43      	adds	r3, r0, #1
 800351e:	d103      	bne.n	8003528 <_sbrk_r+0x1c>
 8003520:	682b      	ldr	r3, [r5, #0]
 8003522:	2b00      	cmp	r3, #0
 8003524:	d000      	beq.n	8003528 <_sbrk_r+0x1c>
 8003526:	6023      	str	r3, [r4, #0]
 8003528:	bd70      	pop	{r4, r5, r6, pc}
 800352a:	46c0      	nop			@ (mov r8, r8)
 800352c:	20000234 	.word	0x20000234

08003530 <memchr>:
 8003530:	b2c9      	uxtb	r1, r1
 8003532:	1882      	adds	r2, r0, r2
 8003534:	4290      	cmp	r0, r2
 8003536:	d101      	bne.n	800353c <memchr+0xc>
 8003538:	2000      	movs	r0, #0
 800353a:	4770      	bx	lr
 800353c:	7803      	ldrb	r3, [r0, #0]
 800353e:	428b      	cmp	r3, r1
 8003540:	d0fb      	beq.n	800353a <memchr+0xa>
 8003542:	3001      	adds	r0, #1
 8003544:	e7f6      	b.n	8003534 <memchr+0x4>

08003546 <memcpy>:
 8003546:	2300      	movs	r3, #0
 8003548:	b510      	push	{r4, lr}
 800354a:	429a      	cmp	r2, r3
 800354c:	d100      	bne.n	8003550 <memcpy+0xa>
 800354e:	bd10      	pop	{r4, pc}
 8003550:	5ccc      	ldrb	r4, [r1, r3]
 8003552:	54c4      	strb	r4, [r0, r3]
 8003554:	3301      	adds	r3, #1
 8003556:	e7f8      	b.n	800354a <memcpy+0x4>

08003558 <_realloc_r>:
 8003558:	b5f7      	push	{r0, r1, r2, r4, r5, r6, r7, lr}
 800355a:	0006      	movs	r6, r0
 800355c:	000c      	movs	r4, r1
 800355e:	0015      	movs	r5, r2
 8003560:	2900      	cmp	r1, #0
 8003562:	d105      	bne.n	8003570 <_realloc_r+0x18>
 8003564:	0011      	movs	r1, r2
 8003566:	f7ff f8bb 	bl	80026e0 <_malloc_r>
 800356a:	0004      	movs	r4, r0
 800356c:	0020      	movs	r0, r4
 800356e:	bdfe      	pop	{r1, r2, r3, r4, r5, r6, r7, pc}
 8003570:	2a00      	cmp	r2, #0
 8003572:	d103      	bne.n	800357c <_realloc_r+0x24>
 8003574:	f7ff f848 	bl	8002608 <_free_r>
 8003578:	2400      	movs	r4, #0
 800357a:	e7f7      	b.n	800356c <_realloc_r+0x14>
 800357c:	f000 f930 	bl	80037e0 <_malloc_usable_size_r>
 8003580:	0007      	movs	r7, r0
 8003582:	4285      	cmp	r5, r0
 8003584:	d802      	bhi.n	800358c <_realloc_r+0x34>
 8003586:	0843      	lsrs	r3, r0, #1
 8003588:	42ab      	cmp	r3, r5
 800358a:	d3ef      	bcc.n	800356c <_realloc_r+0x14>
 800358c:	0029      	movs	r1, r5
 800358e:	0030      	movs	r0, r6
 8003590:	f7ff f8a6 	bl	80026e0 <_malloc_r>
 8003594:	9001      	str	r0, [sp, #4]
 8003596:	2800      	cmp	r0, #0
 8003598:	d0ee      	beq.n	8003578 <_realloc_r+0x20>
 800359a:	002a      	movs	r2, r5
 800359c:	42bd      	cmp	r5, r7
 800359e:	d900      	bls.n	80035a2 <_realloc_r+0x4a>
 80035a0:	003a      	movs	r2, r7
 80035a2:	0021      	movs	r1, r4
 80035a4:	9801      	ldr	r0, [sp, #4]
 80035a6:	f7ff ffce 	bl	8003546 <memcpy>
 80035aa:	0021      	movs	r1, r4
 80035ac:	0030      	movs	r0, r6
 80035ae:	f7ff f82b 	bl	8002608 <_free_r>
 80035b2:	9c01      	ldr	r4, [sp, #4]
 80035b4:	e7da      	b.n	800356c <_realloc_r+0x14>
	...

080035b8 <_strtol_l.constprop.0>:
 80035b8:	b5f0      	push	{r4, r5, r6, r7, lr}
 80035ba:	b085      	sub	sp, #20
 80035bc:	0017      	movs	r7, r2
 80035be:	001e      	movs	r6, r3
 80035c0:	9003      	str	r0, [sp, #12]
 80035c2:	9101      	str	r1, [sp, #4]
 80035c4:	2b24      	cmp	r3, #36	@ 0x24
 80035c6:	d844      	bhi.n	8003652 <_strtol_l.constprop.0+0x9a>
 80035c8:	000c      	movs	r4, r1
 80035ca:	2b01      	cmp	r3, #1
 80035cc:	d041      	beq.n	8003652 <_strtol_l.constprop.0+0x9a>
 80035ce:	4b3d      	ldr	r3, [pc, #244]	@ (80036c4 <_strtol_l.constprop.0+0x10c>)
 80035d0:	2208      	movs	r2, #8
 80035d2:	469c      	mov	ip, r3
 80035d4:	0023      	movs	r3, r4
 80035d6:	4661      	mov	r1, ip
 80035d8:	781d      	ldrb	r5, [r3, #0]
 80035da:	3401      	adds	r4, #1
 80035dc:	5d48      	ldrb	r0, [r1, r5]
 80035de:	0001      	movs	r1, r0
 80035e0:	4011      	ands	r1, r2
 80035e2:	4210      	tst	r0, r2
 80035e4:	d1f6      	bne.n	80035d4 <_strtol_l.constprop.0+0x1c>
 80035e6:	2d2d      	cmp	r5, #45	@ 0x2d
 80035e8:	d13a      	bne.n	8003660 <_strtol_l.constprop.0+0xa8>
 80035ea:	7825      	ldrb	r5, [r4, #0]
 80035ec:	1c9c      	adds	r4, r3, #2
 80035ee:	2301      	movs	r3, #1
 80035f0:	9300      	str	r3, [sp, #0]
 80035f2:	2210      	movs	r2, #16
 80035f4:	0033      	movs	r3, r6
 80035f6:	4393      	bics	r3, r2
 80035f8:	d109      	bne.n	800360e <_strtol_l.constprop.0+0x56>
 80035fa:	2d30      	cmp	r5, #48	@ 0x30
 80035fc:	d136      	bne.n	800366c <_strtol_l.constprop.0+0xb4>
 80035fe:	2120      	movs	r1, #32
 8003600:	7823      	ldrb	r3, [r4, #0]
 8003602:	438b      	bics	r3, r1
 8003604:	2b58      	cmp	r3, #88	@ 0x58
 8003606:	d131      	bne.n	800366c <_strtol_l.constprop.0+0xb4>
 8003608:	0016      	movs	r6, r2
 800360a:	7865      	ldrb	r5, [r4, #1]
 800360c:	3402      	adds	r4, #2
 800360e:	4a2e      	ldr	r2, [pc, #184]	@ (80036c8 <_strtol_l.constprop.0+0x110>)
 8003610:	9b00      	ldr	r3, [sp, #0]
 8003612:	4694      	mov	ip, r2
 8003614:	4463      	add	r3, ip
 8003616:	0031      	movs	r1, r6
 8003618:	0018      	movs	r0, r3
 800361a:	9302      	str	r3, [sp, #8]
 800361c:	f7fc fe0c 	bl	8000238 <__aeabi_uidivmod>
 8003620:	2200      	movs	r2, #0
 8003622:	4684      	mov	ip, r0
 8003624:	0010      	movs	r0, r2
 8003626:	002b      	movs	r3, r5
 8003628:	3b30      	subs	r3, #48	@ 0x30
 800362a:	2b09      	cmp	r3, #9
 800362c:	d825      	bhi.n	800367a <_strtol_l.constprop.0+0xc2>
 800362e:	001d      	movs	r5, r3
 8003630:	42ae      	cmp	r6, r5
 8003632:	dd31      	ble.n	8003698 <_strtol_l.constprop.0+0xe0>
 8003634:	1c53      	adds	r3, r2, #1
 8003636:	d009      	beq.n	800364c <_strtol_l.constprop.0+0x94>
 8003638:	2201      	movs	r2, #1
 800363a:	4252      	negs	r2, r2
 800363c:	4584      	cmp	ip, r0
 800363e:	d305      	bcc.n	800364c <_strtol_l.constprop.0+0x94>
 8003640:	d101      	bne.n	8003646 <_strtol_l.constprop.0+0x8e>
 8003642:	42a9      	cmp	r1, r5
 8003644:	db25      	blt.n	8003692 <_strtol_l.constprop.0+0xda>
 8003646:	2201      	movs	r2, #1
 8003648:	4370      	muls	r0, r6
 800364a:	1828      	adds	r0, r5, r0
 800364c:	7825      	ldrb	r5, [r4, #0]
 800364e:	3401      	adds	r4, #1
 8003650:	e7e9      	b.n	8003626 <_strtol_l.constprop.0+0x6e>
 8003652:	f7fe ffad 	bl	80025b0 <__errno>
 8003656:	2316      	movs	r3, #22
 8003658:	6003      	str	r3, [r0, #0]
 800365a:	2000      	movs	r0, #0
 800365c:	b005      	add	sp, #20
 800365e:	bdf0      	pop	{r4, r5, r6, r7, pc}
 8003660:	9100      	str	r1, [sp, #0]
 8003662:	2d2b      	cmp	r5, #43	@ 0x2b
 8003664:	d1c5      	bne.n	80035f2 <_strtol_l.constprop.0+0x3a>
 8003666:	7825      	ldrb	r5, [r4, #0]
 8003668:	1c9c      	adds	r4, r3, #2
 800366a:	e7c2      	b.n	80035f2 <_strtol_l.constprop.0+0x3a>
 800366c:	2e00      	cmp	r6, #0
 800366e:	d1ce      	bne.n	800360e <_strtol_l.constprop.0+0x56>
 8003670:	3608      	adds	r6, #8
 8003672:	2d30      	cmp	r5, #48	@ 0x30
 8003674:	d0cb      	beq.n	800360e <_strtol_l.constprop.0+0x56>
 8003676:	3602      	adds	r6, #2
 8003678:	e7c9      	b.n	800360e <_strtol_l.constprop.0+0x56>
 800367a:	002b      	movs	r3, r5
 800367c:	3b41      	subs	r3, #65	@ 0x41
 800367e:	2b19      	cmp	r3, #25
 8003680:	d801      	bhi.n	8003686 <_strtol_l.constprop.0+0xce>
 8003682:	3d37      	subs	r5, #55	@ 0x37
 8003684:	e7d4      	b.n	8003630 <_strtol_l.constprop.0+0x78>
 8003686:	002b      	movs	r3, r5
 8003688:	3b61      	subs	r3, #97	@ 0x61
 800368a:	2b19      	cmp	r3, #25
 800368c:	d804      	bhi.n	8003698 <_strtol_l.constprop.0+0xe0>
 800368e:	3d57      	subs	r5, #87	@ 0x57
 8003690:	e7ce      	b.n	8003630 <_strtol_l.constprop.0+0x78>
 8003692:	2201      	movs	r2, #1
 8003694:	4252      	negs	r2, r2
 8003696:	e7d9      	b.n	800364c <_strtol_l.constprop.0+0x94>
 8003698:	1c53      	adds	r3, r2, #1
 800369a:	d108      	bne.n	80036ae <_strtol_l.constprop.0+0xf6>
 800369c:	2322      	movs	r3, #34	@ 0x22
 800369e:	9a03      	ldr	r2, [sp, #12]
 80036a0:	9802      	ldr	r0, [sp, #8]
 80036a2:	6013      	str	r3, [r2, #0]
 80036a4:	2f00      	cmp	r7, #0
 80036a6:	d0d9      	beq.n	800365c <_strtol_l.constprop.0+0xa4>
 80036a8:	1e63      	subs	r3, r4, #1
 80036aa:	9301      	str	r3, [sp, #4]
 80036ac:	e007      	b.n	80036be <_strtol_l.constprop.0+0x106>
 80036ae:	9b00      	ldr	r3, [sp, #0]
 80036b0:	2b00      	cmp	r3, #0
 80036b2:	d000      	beq.n	80036b6 <_strtol_l.constprop.0+0xfe>
 80036b4:	4240      	negs	r0, r0
 80036b6:	2f00      	cmp	r7, #0
 80036b8:	d0d0      	beq.n	800365c <_strtol_l.constprop.0+0xa4>
 80036ba:	2a00      	cmp	r2, #0
 80036bc:	d1f4      	bne.n	80036a8 <_strtol_l.constprop.0+0xf0>
 80036be:	9b01      	ldr	r3, [sp, #4]
 80036c0:	603b      	str	r3, [r7, #0]
 80036c2:	e7cb      	b.n	800365c <_strtol_l.constprop.0+0xa4>
 80036c4:	080038cf 	.word	0x080038cf
 80036c8:	7fffffff 	.word	0x7fffffff

080036cc <_strtol_r>:
 80036cc:	b510      	push	{r4, lr}
 80036ce:	f7ff ff73 	bl	80035b8 <_strtol_l.constprop.0>
 80036d2:	bd10      	pop	{r4, pc}

080036d4 <_strtoul_l.constprop.0>:
 80036d4:	b5f0      	push	{r4, r5, r6, r7, lr}
 80036d6:	001e      	movs	r6, r3
 80036d8:	4b3e      	ldr	r3, [pc, #248]	@ (80037d4 <_strtoul_l.constprop.0+0x100>)
 80036da:	0017      	movs	r7, r2
 80036dc:	000c      	movs	r4, r1
 80036de:	469c      	mov	ip, r3
 80036e0:	2208      	movs	r2, #8
 80036e2:	b085      	sub	sp, #20
 80036e4:	9003      	str	r0, [sp, #12]
 80036e6:	9100      	str	r1, [sp, #0]
 80036e8:	0023      	movs	r3, r4
 80036ea:	4661      	mov	r1, ip
 80036ec:	781d      	ldrb	r5, [r3, #0]
 80036ee:	3401      	adds	r4, #1
 80036f0:	5d48      	ldrb	r0, [r1, r5]
 80036f2:	0001      	movs	r1, r0
 80036f4:	4011      	ands	r1, r2
 80036f6:	4210      	tst	r0, r2
 80036f8:	d1f6      	bne.n	80036e8 <_strtoul_l.constprop.0+0x14>
 80036fa:	2d2d      	cmp	r5, #45	@ 0x2d
 80036fc:	d137      	bne.n	800376e <_strtoul_l.constprop.0+0x9a>
 80036fe:	7825      	ldrb	r5, [r4, #0]
 8003700:	1c9c      	adds	r4, r3, #2
 8003702:	2301      	movs	r3, #1
 8003704:	9302      	str	r3, [sp, #8]
 8003706:	2210      	movs	r2, #16
 8003708:	0033      	movs	r3, r6
 800370a:	4393      	bics	r3, r2
 800370c:	d109      	bne.n	8003722 <_strtoul_l.constprop.0+0x4e>
 800370e:	2d30      	cmp	r5, #48	@ 0x30
 8003710:	d133      	bne.n	800377a <_strtoul_l.constprop.0+0xa6>
 8003712:	2120      	movs	r1, #32
 8003714:	7823      	ldrb	r3, [r4, #0]
 8003716:	438b      	bics	r3, r1
 8003718:	2b58      	cmp	r3, #88	@ 0x58
 800371a:	d12e      	bne.n	800377a <_strtoul_l.constprop.0+0xa6>
 800371c:	0016      	movs	r6, r2
 800371e:	7865      	ldrb	r5, [r4, #1]
 8003720:	3402      	adds	r4, #2
 8003722:	2001      	movs	r0, #1
 8003724:	0031      	movs	r1, r6
 8003726:	4240      	negs	r0, r0
 8003728:	f7fc fd00 	bl	800012c <__udivsi3>
 800372c:	9001      	str	r0, [sp, #4]
 800372e:	2001      	movs	r0, #1
 8003730:	0031      	movs	r1, r6
 8003732:	4240      	negs	r0, r0
 8003734:	f7fc fd80 	bl	8000238 <__aeabi_uidivmod>
 8003738:	2300      	movs	r3, #0
 800373a:	2201      	movs	r2, #1
 800373c:	0018      	movs	r0, r3
 800373e:	4694      	mov	ip, r2
 8003740:	002a      	movs	r2, r5
 8003742:	3a30      	subs	r2, #48	@ 0x30
 8003744:	2a09      	cmp	r2, #9
 8003746:	d81f      	bhi.n	8003788 <_strtoul_l.constprop.0+0xb4>
 8003748:	0015      	movs	r5, r2
 800374a:	42ae      	cmp	r6, r5
 800374c:	dd2b      	ble.n	80037a6 <_strtoul_l.constprop.0+0xd2>
 800374e:	1c5a      	adds	r2, r3, #1
 8003750:	d00a      	beq.n	8003768 <_strtoul_l.constprop.0+0x94>
 8003752:	2301      	movs	r3, #1
 8003754:	9a01      	ldr	r2, [sp, #4]
 8003756:	425b      	negs	r3, r3
 8003758:	4282      	cmp	r2, r0
 800375a:	d305      	bcc.n	8003768 <_strtoul_l.constprop.0+0x94>
 800375c:	d101      	bne.n	8003762 <_strtoul_l.constprop.0+0x8e>
 800375e:	42a9      	cmp	r1, r5
 8003760:	db1e      	blt.n	80037a0 <_strtoul_l.constprop.0+0xcc>
 8003762:	4663      	mov	r3, ip
 8003764:	4370      	muls	r0, r6
 8003766:	1828      	adds	r0, r5, r0
 8003768:	7825      	ldrb	r5, [r4, #0]
 800376a:	3401      	adds	r4, #1
 800376c:	e7e8      	b.n	8003740 <_strtoul_l.constprop.0+0x6c>
 800376e:	9102      	str	r1, [sp, #8]
 8003770:	2d2b      	cmp	r5, #43	@ 0x2b
 8003772:	d1c8      	bne.n	8003706 <_strtoul_l.constprop.0+0x32>
 8003774:	7825      	ldrb	r5, [r4, #0]
 8003776:	1c9c      	adds	r4, r3, #2
 8003778:	e7c5      	b.n	8003706 <_strtoul_l.constprop.0+0x32>
 800377a:	2e00      	cmp	r6, #0
 800377c:	d1d1      	bne.n	8003722 <_strtoul_l.constprop.0+0x4e>
 800377e:	3608      	adds	r6, #8
 8003780:	2d30      	cmp	r5, #48	@ 0x30
 8003782:	d0ce      	beq.n	8003722 <_strtoul_l.constprop.0+0x4e>
 8003784:	3602      	adds	r6, #2
 8003786:	e7cc      	b.n	8003722 <_strtoul_l.constprop.0+0x4e>
 8003788:	002a      	movs	r2, r5
 800378a:	3a41      	subs	r2, #65	@ 0x41
 800378c:	2a19      	cmp	r2, #25
 800378e:	d801      	bhi.n	8003794 <_strtoul_l.constprop.0+0xc0>
 8003790:	3d37      	subs	r5, #55	@ 0x37
 8003792:	e7da      	b.n	800374a <_strtoul_l.constprop.0+0x76>
 8003794:	002a      	movs	r2, r5
 8003796:	3a61      	subs	r2, #97	@ 0x61
 8003798:	2a19      	cmp	r2, #25
 800379a:	d804      	bhi.n	80037a6 <_strtoul_l.constprop.0+0xd2>
 800379c:	3d57      	subs	r5, #87	@ 0x57
 800379e:	e7d4      	b.n	800374a <_strtoul_l.constprop.0+0x76>
 80037a0:	2301      	movs	r3, #1
 80037a2:	425b      	negs	r3, r3
 80037a4:	e7e0      	b.n	8003768 <_strtoul_l.constprop.0+0x94>
 80037a6:	1c5a      	adds	r2, r3, #1
 80037a8:	d107      	bne.n	80037ba <_strtoul_l.constprop.0+0xe6>
 80037aa:	2222      	movs	r2, #34	@ 0x22
 80037ac:	9903      	ldr	r1, [sp, #12]
 80037ae:	0018      	movs	r0, r3
 80037b0:	600a      	str	r2, [r1, #0]
 80037b2:	2f00      	cmp	r7, #0
 80037b4:	d109      	bne.n	80037ca <_strtoul_l.constprop.0+0xf6>
 80037b6:	b005      	add	sp, #20
 80037b8:	bdf0      	pop	{r4, r5, r6, r7, pc}
 80037ba:	9a02      	ldr	r2, [sp, #8]
 80037bc:	2a00      	cmp	r2, #0
 80037be:	d000      	beq.n	80037c2 <_strtoul_l.constprop.0+0xee>
 80037c0:	4240      	negs	r0, r0
 80037c2:	2f00      	cmp	r7, #0
 80037c4:	d0f7      	beq.n	80037b6 <_strtoul_l.constprop.0+0xe2>
 80037c6:	2b00      	cmp	r3, #0
 80037c8:	d001      	beq.n	80037ce <_strtoul_l.constprop.0+0xfa>
 80037ca:	1e63      	subs	r3, r4, #1
 80037cc:	9300      	str	r3, [sp, #0]
 80037ce:	9b00      	ldr	r3, [sp, #0]
 80037d0:	603b      	str	r3, [r7, #0]
 80037d2:	e7f0      	b.n	80037b6 <_strtoul_l.constprop.0+0xe2>
 80037d4:	080038cf 	.word	0x080038cf

080037d8 <_strtoul_r>:
 80037d8:	b510      	push	{r4, lr}
 80037da:	f7ff ff7b 	bl	80036d4 <_strtoul_l.constprop.0>
 80037de:	bd10      	pop	{r4, pc}

080037e0 <_malloc_usable_size_r>:
 80037e0:	1f0b      	subs	r3, r1, #4
 80037e2:	681b      	ldr	r3, [r3, #0]
 80037e4:	1f18      	subs	r0, r3, #4
 80037e6:	2b00      	cmp	r3, #0
 80037e8:	da01      	bge.n	80037ee <_malloc_usable_size_r+0xe>
 80037ea:	580b      	ldr	r3, [r1, r0]
 80037ec:	18c0      	adds	r0, r0, r3
 80037ee:	4770      	bx	lr

080037f0 <_init>:
 80037f0:	b5f8      	push	{r3, r4, r5, r6, r7, lr}
 80037f2:	46c0      	nop			@ (mov r8, r8)
 80037f4:	bcf8      	pop	{r3, r4, r5, r6, r7}
 80037f6:	bc08      	pop	{r3}
 80037f8:	469e      	mov	lr, r3
 80037fa:	4770      	bx	lr

080037fc <_fini>:
 80037fc:	b5f8      	push	{r3, r4, r5, r6, r7, lr}
 80037fe:	46c0      	nop			@ (mov r8, r8)
 8003800:	bcf8      	pop	{r3, r4, r5, r6, r7}
 8003802:	bc08      	pop	{r3}
 8003804:	469e      	mov	lr, r3
 8003806:	4770      	bx	lr
